Archive member included because of file (symbol)

/usr/lib/gcc/arm-none-eabi/4.8.2/../../../arm-none-eabi/lib/armv7-ar/thumb/softfp/libc.a(lib_a-atexit.o)
                              /usr/lib/gcc/arm-none-eabi/4.8.2/../../../arm-none-eabi/lib/armv7-ar/thumb/softfp/crt0.o (atexit)
/usr/lib/gcc/arm-none-eabi/4.8.2/../../../arm-none-eabi/lib/armv7-ar/thumb/softfp/libc.a(lib_a-atoi.o)
                              build/kernel/components/finsh/finsh_token.o (atoi)
/usr/lib/gcc/arm-none-eabi/4.8.2/../../../arm-none-eabi/lib/armv7-ar/thumb/softfp/libc.a(lib_a-exit.o)
                              /usr/lib/gcc/arm-none-eabi/4.8.2/../../../arm-none-eabi/lib/armv7-ar/thumb/softfp/crt0.o (exit)
/usr/lib/gcc/arm-none-eabi/4.8.2/../../../arm-none-eabi/lib/armv7-ar/thumb/softfp/libc.a(lib_a-fini.o)
                              /usr/lib/gcc/arm-none-eabi/4.8.2/../../../arm-none-eabi/lib/armv7-ar/thumb/softfp/crt0.o (__libc_fini_array)
/usr/lib/gcc/arm-none-eabi/4.8.2/../../../arm-none-eabi/lib/armv7-ar/thumb/softfp/libc.a(lib_a-impure.o)
                              /usr/lib/gcc/arm-none-eabi/4.8.2/../../../arm-none-eabi/lib/armv7-ar/thumb/softfp/libc.a(lib_a-exit.o) (_global_impure_ptr)
/usr/lib/gcc/arm-none-eabi/4.8.2/../../../arm-none-eabi/lib/armv7-ar/thumb/softfp/libc.a(lib_a-init.o)
                              /usr/lib/gcc/arm-none-eabi/4.8.2/../../../arm-none-eabi/lib/armv7-ar/thumb/softfp/crt0.o (__libc_init_array)
/usr/lib/gcc/arm-none-eabi/4.8.2/../../../arm-none-eabi/lib/armv7-ar/thumb/softfp/libc.a(lib_a-memcpy-stub.o)
                              build/kernel/components/finsh/shell.o (memcpy)
/usr/lib/gcc/arm-none-eabi/4.8.2/../../../arm-none-eabi/lib/armv7-ar/thumb/softfp/libc.a(lib_a-memset.o)
                              /usr/lib/gcc/arm-none-eabi/4.8.2/../../../arm-none-eabi/lib/armv7-ar/thumb/softfp/crt0.o (memset)
/usr/lib/gcc/arm-none-eabi/4.8.2/../../../arm-none-eabi/lib/armv7-ar/thumb/softfp/libc.a(lib_a-putenv.o)
                              build/kernel/components/libc/newlib/libc.o (putenv)
/usr/lib/gcc/arm-none-eabi/4.8.2/../../../arm-none-eabi/lib/armv7-ar/thumb/softfp/libc.a(lib_a-putenv_r.o)
                              /usr/lib/gcc/arm-none-eabi/4.8.2/../../../arm-none-eabi/lib/armv7-ar/thumb/softfp/libc.a(lib_a-putenv.o) (_putenv_r)
/usr/lib/gcc/arm-none-eabi/4.8.2/../../../arm-none-eabi/lib/armv7-ar/thumb/softfp/libc.a(lib_a-setenv_r.o)
                              /usr/lib/gcc/arm-none-eabi/4.8.2/../../../arm-none-eabi/lib/armv7-ar/thumb/softfp/libc.a(lib_a-putenv_r.o) (_setenv_r)
/usr/lib/gcc/arm-none-eabi/4.8.2/../../../arm-none-eabi/lib/armv7-ar/thumb/softfp/libc.a(lib_a-strchr.o)
                              /usr/lib/gcc/arm-none-eabi/4.8.2/../../../arm-none-eabi/lib/armv7-ar/thumb/softfp/libc.a(lib_a-putenv_r.o) (strchr)
/usr/lib/gcc/arm-none-eabi/4.8.2/../../../arm-none-eabi/lib/armv7-ar/thumb/softfp/libc.a(lib_a-strcmp.o)
                              build/kernel/components/finsh/finsh_var.o (strcmp)
/usr/lib/gcc/arm-none-eabi/4.8.2/../../../arm-none-eabi/lib/armv7-ar/thumb/softfp/libc.a(lib_a-strdup_r.o)
                              /usr/lib/gcc/arm-none-eabi/4.8.2/../../../arm-none-eabi/lib/armv7-ar/thumb/softfp/libc.a(lib_a-putenv_r.o) (_strdup_r)
/usr/lib/gcc/arm-none-eabi/4.8.2/../../../arm-none-eabi/lib/armv7-ar/thumb/softfp/libc.a(lib_a-strlen.o)
                              build/kernel/components/finsh/shell.o (strlen)
/usr/lib/gcc/arm-none-eabi/4.8.2/../../../arm-none-eabi/lib/armv7-ar/thumb/softfp/libc.a(lib_a-strncmp.o)
                              build/kernel/components/finsh/cmd.o (strncmp)
/usr/lib/gcc/arm-none-eabi/4.8.2/../../../arm-none-eabi/lib/armv7-ar/thumb/softfp/libc.a(lib_a-strncpy.o)
                              build/kernel/components/finsh/finsh_node.o (strncpy)
/usr/lib/gcc/arm-none-eabi/4.8.2/../../../arm-none-eabi/lib/armv7-ar/thumb/softfp/libc.a(lib_a-strtol.o)
                              /usr/lib/gcc/arm-none-eabi/4.8.2/../../../arm-none-eabi/lib/armv7-ar/thumb/softfp/libc.a(lib_a-atoi.o) (_strtol_r)
/usr/lib/gcc/arm-none-eabi/4.8.2/../../../arm-none-eabi/lib/armv7-ar/thumb/softfp/libc.a(lib_a-tzset.o)
                              /usr/lib/gcc/arm-none-eabi/4.8.2/../../../arm-none-eabi/lib/armv7-ar/thumb/softfp/libc.a(lib_a-setenv_r.o) (tzset)
/usr/lib/gcc/arm-none-eabi/4.8.2/../../../arm-none-eabi/lib/armv7-ar/thumb/softfp/libc.a(lib_a-tzset_r.o)
                              /usr/lib/gcc/arm-none-eabi/4.8.2/../../../arm-none-eabi/lib/armv7-ar/thumb/softfp/libc.a(lib_a-tzset.o) (_tzset_r)
/usr/lib/gcc/arm-none-eabi/4.8.2/../../../arm-none-eabi/lib/armv7-ar/thumb/softfp/libc.a(lib_a-tzvars.o)
                              /usr/lib/gcc/arm-none-eabi/4.8.2/../../../arm-none-eabi/lib/armv7-ar/thumb/softfp/libc.a(lib_a-tzset_r.o) (_timezone)
/usr/lib/gcc/arm-none-eabi/4.8.2/../../../arm-none-eabi/lib/armv7-ar/thumb/softfp/libc.a(lib_a-__atexit.o)
                              /usr/lib/gcc/arm-none-eabi/4.8.2/../../../arm-none-eabi/lib/armv7-ar/thumb/softfp/libc.a(lib_a-atexit.o) (__register_exitproc)
/usr/lib/gcc/arm-none-eabi/4.8.2/../../../arm-none-eabi/lib/armv7-ar/thumb/softfp/libc.a(lib_a-__call_atexit.o)
                              /usr/lib/gcc/arm-none-eabi/4.8.2/../../../arm-none-eabi/lib/armv7-ar/thumb/softfp/libc.a(lib_a-exit.o) (__call_exitprocs)
/usr/lib/gcc/arm-none-eabi/4.8.2/../../../arm-none-eabi/lib/armv7-ar/thumb/softfp/libc.a(lib_a-ctype_.o)
                              /usr/lib/gcc/arm-none-eabi/4.8.2/../../../arm-none-eabi/lib/armv7-ar/thumb/softfp/libc.a(lib_a-strtol.o) (__ctype_ptr__)
/usr/lib/gcc/arm-none-eabi/4.8.2/../../../arm-none-eabi/lib/armv7-ar/thumb/softfp/libc.a(lib_a-environ.o)
                              /usr/lib/gcc/arm-none-eabi/4.8.2/../../../arm-none-eabi/lib/armv7-ar/thumb/softfp/libc.a(lib_a-setenv_r.o) (environ)
/usr/lib/gcc/arm-none-eabi/4.8.2/../../../arm-none-eabi/lib/armv7-ar/thumb/softfp/libc.a(lib_a-envlock.o)
                              /usr/lib/gcc/arm-none-eabi/4.8.2/../../../arm-none-eabi/lib/armv7-ar/thumb/softfp/libc.a(lib_a-setenv_r.o) (__env_lock)
/usr/lib/gcc/arm-none-eabi/4.8.2/../../../arm-none-eabi/lib/armv7-ar/thumb/softfp/libc.a(lib_a-errno.o)
                              /usr/lib/gcc/arm-none-eabi/4.8.2/../../../arm-none-eabi/lib/armv7-ar/thumb/softfp/libc.a(lib_a-setenv_r.o) (__errno)
/usr/lib/gcc/arm-none-eabi/4.8.2/../../../arm-none-eabi/lib/armv7-ar/thumb/softfp/libc.a(lib_a-getenv_r.o)
                              /usr/lib/gcc/arm-none-eabi/4.8.2/../../../arm-none-eabi/lib/armv7-ar/thumb/softfp/libc.a(lib_a-setenv_r.o) (_findenv_r)
/usr/lib/gcc/arm-none-eabi/4.8.2/../../../arm-none-eabi/lib/armv7-ar/thumb/softfp/libc.a(lib_a-gettzinfo.o)
                              /usr/lib/gcc/arm-none-eabi/4.8.2/../../../arm-none-eabi/lib/armv7-ar/thumb/softfp/libc.a(lib_a-tzset_r.o) (__gettzinfo)
/usr/lib/gcc/arm-none-eabi/4.8.2/../../../arm-none-eabi/lib/armv7-ar/thumb/softfp/libc.a(lib_a-malloc.o)
                              /usr/lib/gcc/arm-none-eabi/4.8.2/../../../arm-none-eabi/lib/armv7-ar/thumb/softfp/libc.a(lib_a-tzset_r.o) (free)
/usr/lib/gcc/arm-none-eabi/4.8.2/../../../arm-none-eabi/lib/armv7-ar/thumb/softfp/libc.a(lib_a-mktm_r.o)
                              /usr/lib/gcc/arm-none-eabi/4.8.2/../../../arm-none-eabi/lib/armv7-ar/thumb/softfp/libc.a(lib_a-tzset_r.o) (__tzcalc_limits)
/usr/lib/gcc/arm-none-eabi/4.8.2/../../../arm-none-eabi/lib/armv7-ar/thumb/softfp/libc.a(lib_a-siscanf.o)
                              /usr/lib/gcc/arm-none-eabi/4.8.2/../../../arm-none-eabi/lib/armv7-ar/thumb/softfp/libc.a(lib_a-tzset_r.o) (siscanf)
/usr/lib/gcc/arm-none-eabi/4.8.2/../../../arm-none-eabi/lib/armv7-ar/thumb/softfp/libc.a(lib_a-stdio.o)
                              /usr/lib/gcc/arm-none-eabi/4.8.2/../../../arm-none-eabi/lib/armv7-ar/thumb/softfp/libc.a(lib_a-siscanf.o) (__seofread)
/usr/lib/gcc/arm-none-eabi/4.8.2/../../../arm-none-eabi/lib/armv7-ar/thumb/softfp/libc.a(lib_a-strcpy.o)
                              /usr/lib/gcc/arm-none-eabi/4.8.2/../../../arm-none-eabi/lib/armv7-ar/thumb/softfp/libc.a(lib_a-tzset_r.o) (strcpy)
/usr/lib/gcc/arm-none-eabi/4.8.2/../../../arm-none-eabi/lib/armv7-ar/thumb/softfp/libc.a(lib_a-strtoul.o)
                              /usr/lib/gcc/arm-none-eabi/4.8.2/../../../arm-none-eabi/lib/armv7-ar/thumb/softfp/libc.a(lib_a-tzset_r.o) (strtoul)
/usr/lib/gcc/arm-none-eabi/4.8.2/../../../arm-none-eabi/lib/armv7-ar/thumb/softfp/libc.a(lib_a-svfiscanf.o)
                              /usr/lib/gcc/arm-none-eabi/4.8.2/../../../arm-none-eabi/lib/armv7-ar/thumb/softfp/libc.a(lib_a-siscanf.o) (__ssvfiscanf_r)
/usr/lib/gcc/arm-none-eabi/4.8.2/../../../arm-none-eabi/lib/armv7-ar/thumb/softfp/libc.a(lib_a-tzlock.o)
                              /usr/lib/gcc/arm-none-eabi/4.8.2/../../../arm-none-eabi/lib/armv7-ar/thumb/softfp/libc.a(lib_a-tzset_r.o) (__tz_lock)
/usr/lib/gcc/arm-none-eabi/4.8.2/../../../arm-none-eabi/lib/armv7-ar/thumb/softfp/libc.a(lib_a-ungetc.o)
                              /usr/lib/gcc/arm-none-eabi/4.8.2/../../../arm-none-eabi/lib/armv7-ar/thumb/softfp/libc.a(lib_a-svfiscanf.o) (__submore)
/usr/lib/gcc/arm-none-eabi/4.8.2/../../../arm-none-eabi/lib/armv7-ar/thumb/softfp/libc.a(lib_a-fflush.o)
                              /usr/lib/gcc/arm-none-eabi/4.8.2/../../../arm-none-eabi/lib/armv7-ar/thumb/softfp/libc.a(lib_a-ungetc.o) (_fflush_r)
/usr/lib/gcc/arm-none-eabi/4.8.2/../../../arm-none-eabi/lib/armv7-ar/thumb/softfp/libc.a(lib_a-findfp.o)
                              /usr/lib/gcc/arm-none-eabi/4.8.2/../../../arm-none-eabi/lib/armv7-ar/thumb/softfp/libc.a(lib_a-ungetc.o) (__sinit)
/usr/lib/gcc/arm-none-eabi/4.8.2/../../../arm-none-eabi/lib/armv7-ar/thumb/softfp/libc.a(lib_a-fwalk.o)
                              /usr/lib/gcc/arm-none-eabi/4.8.2/../../../arm-none-eabi/lib/armv7-ar/thumb/softfp/libc.a(lib_a-findfp.o) (_fwalk)
/usr/lib/gcc/arm-none-eabi/4.8.2/../../../arm-none-eabi/lib/armv7-ar/thumb/softfp/libc.a(lib_a-iswspace.o)
                              /usr/lib/gcc/arm-none-eabi/4.8.2/../../../arm-none-eabi/lib/armv7-ar/thumb/softfp/libc.a(lib_a-svfiscanf.o) (iswspace)
/usr/lib/gcc/arm-none-eabi/4.8.2/../../../arm-none-eabi/lib/armv7-ar/thumb/softfp/libc.a(lib_a-locale.o)
                              /usr/lib/gcc/arm-none-eabi/4.8.2/../../../arm-none-eabi/lib/armv7-ar/thumb/softfp/libc.a(lib_a-svfiscanf.o) (__locale_mb_cur_max)
/usr/lib/gcc/arm-none-eabi/4.8.2/../../../arm-none-eabi/lib/armv7-ar/thumb/softfp/libc.a(lib_a-mbrtowc.o)
                              /usr/lib/gcc/arm-none-eabi/4.8.2/../../../arm-none-eabi/lib/armv7-ar/thumb/softfp/libc.a(lib_a-svfiscanf.o) (_mbrtowc_r)
/usr/lib/gcc/arm-none-eabi/4.8.2/../../../arm-none-eabi/lib/armv7-ar/thumb/softfp/libc.a(lib_a-mbtowc_r.o)
                              /usr/lib/gcc/arm-none-eabi/4.8.2/../../../arm-none-eabi/lib/armv7-ar/thumb/softfp/libc.a(lib_a-mbrtowc.o) (__mbtowc)
/usr/lib/gcc/arm-none-eabi/4.8.2/../../../arm-none-eabi/lib/armv7-ar/thumb/softfp/libc.a(lib_a-sccl.o)
                              /usr/lib/gcc/arm-none-eabi/4.8.2/../../../arm-none-eabi/lib/armv7-ar/thumb/softfp/libc.a(lib_a-svfiscanf.o) (__sccl)
/usr/lib/gcc/arm-none-eabi/4.8.2/../../../arm-none-eabi/lib/armv7-ar/thumb/softfp/libc.a(lib_a-strtoll_r.o)
                              /usr/lib/gcc/arm-none-eabi/4.8.2/../../../arm-none-eabi/lib/armv7-ar/thumb/softfp/libc.a(lib_a-svfiscanf.o) (_strtoll_r)
/usr/lib/gcc/arm-none-eabi/4.8.2/../../../arm-none-eabi/lib/armv7-ar/thumb/softfp/libc.a(lib_a-strtoull_r.o)
                              /usr/lib/gcc/arm-none-eabi/4.8.2/../../../arm-none-eabi/lib/armv7-ar/thumb/softfp/libc.a(lib_a-svfiscanf.o) (_strtoull_r)
/usr/lib/gcc/arm-none-eabi/4.8.2/../../../arm-none-eabi/lib/armv7-ar/thumb/softfp/libc.a(lib_a-fclose.o)
                              /usr/lib/gcc/arm-none-eabi/4.8.2/../../../arm-none-eabi/lib/armv7-ar/thumb/softfp/libc.a(lib_a-findfp.o) (fclose)
/usr/lib/gcc/arm-none-eabi/4.8.2/armv7-ar/thumb/softfp/libgcc.a(_udivsi3.o)
                              build/kernel/src/ipc.o (__aeabi_uidiv)
/usr/lib/gcc/arm-none-eabi/4.8.2/armv7-ar/thumb/softfp/libgcc.a(_divsi3.o)
                              build/kernel/components/finsh/finsh_ops.o (__aeabi_idiv)
/usr/lib/gcc/arm-none-eabi/4.8.2/armv7-ar/thumb/softfp/libgcc.a(_dvmd_tls.o)
                              /usr/lib/gcc/arm-none-eabi/4.8.2/armv7-ar/thumb/softfp/libgcc.a(_udivsi3.o) (__aeabi_idiv0)
/usr/lib/gcc/arm-none-eabi/4.8.2/armv7-ar/thumb/softfp/libgcc.a(_aeabi_uldivmod.o)
                              /usr/lib/gcc/arm-none-eabi/4.8.2/../../../arm-none-eabi/lib/armv7-ar/thumb/softfp/libc.a(lib_a-strtoll_r.o) (__aeabi_uldivmod)
/usr/lib/gcc/arm-none-eabi/4.8.2/armv7-ar/thumb/softfp/libgcc.a(bpabi.o)
                              /usr/lib/gcc/arm-none-eabi/4.8.2/armv7-ar/thumb/softfp/libgcc.a(_aeabi_uldivmod.o) (__gnu_uldivmod_helper)
/usr/lib/gcc/arm-none-eabi/4.8.2/armv7-ar/thumb/softfp/libgcc.a(_divdi3.o)
                              /usr/lib/gcc/arm-none-eabi/4.8.2/armv7-ar/thumb/softfp/libgcc.a(bpabi.o) (__divdi3)
/usr/lib/gcc/arm-none-eabi/4.8.2/armv7-ar/thumb/softfp/libgcc.a(_udivdi3.o)
                              /usr/lib/gcc/arm-none-eabi/4.8.2/armv7-ar/thumb/softfp/libgcc.a(bpabi.o) (__udivdi3)

Allocating common symbols
Common symbol       size              file

global_sysvar_list  0x4               build/kernel/components/finsh/finsh_var.o
finsh_heap          0x80              build/kernel/components/finsh/finsh_heap.o
shell               0x4               build/kernel/components/finsh/shell.o
text_segment        0x80              build/kernel/components/finsh/finsh_vm.o
finsh_compile_pc    0x4               build/kernel/components/finsh/finsh_compiler.o
finsh_vm_stack      0x100             build/kernel/components/finsh/finsh_vm.o
global_errno        0x1               build/kernel/components/finsh/finsh_error.o
rt_thread_priority_table
                    0x100             build/kernel/src/scheduler.o
rt_object_put_hook  0x4               build/kernel/src/object.o
_timevalue          0x8               build/kernel/components/pthreads/clock_time.o
rt_current_priority
                    0x1               build/kernel/src/scheduler.o
rt_assert_hook      0x4               build/kernel/src/kservice.o
isr_table           0x780             build/kernel/libcpu/arm/realview-a8-vmm/interrupt.o
rt_interrupt_nest   0x1               build/kernel/src/irq.o
rt_object_take_hook
                    0x4               build/kernel/src/object.o
rt_current_thread   0x4               build/kernel/src/scheduler.o
rt_thread_ready_priority_group
                    0x4               build/kernel/src/scheduler.o
rt_thread_defunct   0x8               build/kernel/src/scheduler.o
global_node_table   0x140             build/kernel/components/finsh/finsh_node.o
finsh_compile_sp    0x4               build/kernel/components/finsh/finsh_compiler.o
_thread_keys        0x40              build/kernel/components/pthreads/pthread_tls.o
finsh_pc            0x4               build/kernel/components/finsh/finsh_vm.o
rt_object_trytake_hook
                    0x4               build/kernel/src/object.o
finsh_sp            0x4               build/kernel/components/finsh/finsh_vm.o
global_variable     0xc0              build/kernel/components/finsh/finsh_var.o

Discarded input sections

 .text          0x0000000000000000        0x0 /usr/lib/gcc/arm-none-eabi/4.8.2/armv7-ar/thumb/softfp/crti.o
 .data          0x0000000000000000        0x0 /usr/lib/gcc/arm-none-eabi/4.8.2/armv7-ar/thumb/softfp/crti.o
 .bss           0x0000000000000000        0x0 /usr/lib/gcc/arm-none-eabi/4.8.2/armv7-ar/thumb/softfp/crti.o
 .init          0x0000000000000000        0x4 /usr/lib/gcc/arm-none-eabi/4.8.2/armv7-ar/thumb/softfp/crti.o
 .fini          0x0000000000000000        0x4 /usr/lib/gcc/arm-none-eabi/4.8.2/armv7-ar/thumb/softfp/crti.o
 .ARM.attributes
                0x0000000000000000       0x1b /usr/lib/gcc/arm-none-eabi/4.8.2/armv7-ar/thumb/softfp/crti.o
 .text          0x0000000000000000       0xc8 /usr/lib/gcc/arm-none-eabi/4.8.2/armv7-ar/thumb/softfp/crtbegin.o
 .data          0x0000000000000000        0x4 /usr/lib/gcc/arm-none-eabi/4.8.2/armv7-ar/thumb/softfp/crtbegin.o
 .bss           0x0000000000000000       0x1c /usr/lib/gcc/arm-none-eabi/4.8.2/armv7-ar/thumb/softfp/crtbegin.o
 .init_array    0x0000000000000000        0x4 /usr/lib/gcc/arm-none-eabi/4.8.2/armv7-ar/thumb/softfp/crtbegin.o
 .fini_array    0x0000000000000000        0x4 /usr/lib/gcc/arm-none-eabi/4.8.2/armv7-ar/thumb/softfp/crtbegin.o
 .eh_frame      0x0000000000000000        0x0 /usr/lib/gcc/arm-none-eabi/4.8.2/armv7-ar/thumb/softfp/crtbegin.o
 .jcr           0x0000000000000000        0x0 /usr/lib/gcc/arm-none-eabi/4.8.2/armv7-ar/thumb/softfp/crtbegin.o
 .tm_clone_table
                0x0000000000000000        0x0 /usr/lib/gcc/arm-none-eabi/4.8.2/armv7-ar/thumb/softfp/crtbegin.o
 .comment       0x0000000000000000       0x20 /usr/lib/gcc/arm-none-eabi/4.8.2/armv7-ar/thumb/softfp/crtbegin.o
 .ARM.attributes
                0x0000000000000000       0x2d /usr/lib/gcc/arm-none-eabi/4.8.2/armv7-ar/thumb/softfp/crtbegin.o
 .text          0x0000000000000000       0x68 /usr/lib/gcc/arm-none-eabi/4.8.2/../../../arm-none-eabi/lib/armv7-ar/thumb/softfp/crt0.o
 .data          0x0000000000000000        0x0 /usr/lib/gcc/arm-none-eabi/4.8.2/../../../arm-none-eabi/lib/armv7-ar/thumb/softfp/crt0.o
 .bss           0x0000000000000000        0x0 /usr/lib/gcc/arm-none-eabi/4.8.2/../../../arm-none-eabi/lib/armv7-ar/thumb/softfp/crt0.o
 .ARM.extab     0x0000000000000000        0x0 /usr/lib/gcc/arm-none-eabi/4.8.2/../../../arm-none-eabi/lib/armv7-ar/thumb/softfp/crt0.o
 .ARM.exidx     0x0000000000000000        0x8 /usr/lib/gcc/arm-none-eabi/4.8.2/../../../arm-none-eabi/lib/armv7-ar/thumb/softfp/crt0.o
 .ARM.attributes
                0x0000000000000000       0x19 /usr/lib/gcc/arm-none-eabi/4.8.2/../../../arm-none-eabi/lib/armv7-ar/thumb/softfp/crt0.o
 .debug_line    0x0000000000000000       0x81 /usr/lib/gcc/arm-none-eabi/4.8.2/../../../arm-none-eabi/lib/armv7-ar/thumb/softfp/crt0.o
 .debug_info    0x0000000000000000       0xa1 /usr/lib/gcc/arm-none-eabi/4.8.2/../../../arm-none-eabi/lib/armv7-ar/thumb/softfp/crt0.o
 .debug_abbrev  0x0000000000000000       0x14 /usr/lib/gcc/arm-none-eabi/4.8.2/../../../arm-none-eabi/lib/armv7-ar/thumb/softfp/crt0.o
 .debug_aranges
                0x0000000000000000       0x20 /usr/lib/gcc/arm-none-eabi/4.8.2/../../../arm-none-eabi/lib/armv7-ar/thumb/softfp/crt0.o
 .data          0x0000000000000000        0x0 build/bsp/applications/application.o
 .bss           0x0000000000000000        0x0 build/bsp/applications/application.o
 .data          0x0000000000000000        0x0 build/bsp/applications/startup.o
 .bss           0x0000000000000000        0x0 build/bsp/applications/startup.o
 .data          0x0000000000000000        0x0 build/bsp/drivers/board.o
 .bss           0x0000000000000000        0x0 build/bsp/drivers/board.o
 .data          0x0000000000000000        0x0 build/kernel/src/clock.o
 .data          0x0000000000000000        0x0 build/kernel/src/components.o
 .bss           0x0000000000000000        0x0 build/kernel/src/components.o
 .data          0x0000000000000000        0x0 build/kernel/src/device.o
 .bss           0x0000000000000000        0x0 build/kernel/src/device.o
 .data          0x0000000000000000        0x0 build/kernel/src/idle.o
 .data          0x0000000000000000        0x0 build/kernel/src/ipc.o
 .bss           0x0000000000000000        0x0 build/kernel/src/ipc.o
 .data          0x0000000000000000        0x0 build/kernel/src/irq.o
 .bss           0x0000000000000000        0x0 build/kernel/src/irq.o
 .data          0x0000000000000000        0x0 build/kernel/src/kservice.o
 .data          0x0000000000000000        0x0 build/kernel/src/mem.o
 .text          0x0000000000000000      0xc44 build/kernel/src/mempool.o
 .data          0x0000000000000000        0x0 build/kernel/src/mempool.o
 .bss           0x0000000000000000        0x8 build/kernel/src/mempool.o
 .rodata        0x0000000000000000       0xb8 build/kernel/src/mempool.o
 .debug_info    0x0000000000000000      0x9a5 build/kernel/src/mempool.o
 .debug_abbrev  0x0000000000000000      0x218 build/kernel/src/mempool.o
 .debug_loc     0x0000000000000000      0x1e4 build/kernel/src/mempool.o
 .debug_aranges
                0x0000000000000000       0x20 build/kernel/src/mempool.o
 .debug_ranges  0x0000000000000000       0x30 build/kernel/src/mempool.o
 .debug_line    0x0000000000000000      0x281 build/kernel/src/mempool.o
 .debug_str     0x0000000000000000      0x5d8 build/kernel/src/mempool.o
 .comment       0x0000000000000000       0x20 build/kernel/src/mempool.o
 .ARM.attributes
                0x0000000000000000       0x2f build/kernel/src/mempool.o
 .debug_frame   0x0000000000000000      0x148 build/kernel/src/mempool.o
 .data          0x0000000000000000        0x0 build/kernel/src/scheduler.o
 .data          0x0000000000000000        0x0 build/kernel/src/thread.o
 .bss           0x0000000000000000        0x0 build/kernel/src/thread.o
 .data          0x0000000000000000        0x0 build/kernel/src/timer.o
 .data          0x0000000000000000        0x0 build/kernel/libcpu/arm/realview-a8-vmm/cpu.o
 .bss           0x0000000000000000        0x0 build/kernel/libcpu/arm/realview-a8-vmm/cpu.o
 .data          0x0000000000000000        0x0 build/kernel/libcpu/arm/realview-a8-vmm/gic.o
 .data          0x0000000000000000        0x0 build/kernel/libcpu/arm/realview-a8-vmm/interrupt.o
 .bss           0x0000000000000000        0x0 build/kernel/libcpu/arm/realview-a8-vmm/interrupt.o
 .rodata        0x0000000000000000        0x4 build/kernel/libcpu/arm/realview-a8-vmm/interrupt.o
 .text          0x0000000000000000      0x518 build/kernel/libcpu/arm/realview-a8-vmm/mmu.o
 .data          0x0000000000000000        0x0 build/kernel/libcpu/arm/realview-a8-vmm/mmu.o
 .bss           0x0000000000000000     0x4000 build/kernel/libcpu/arm/realview-a8-vmm/mmu.o
 .rodata        0x0000000000000000      0x104 build/kernel/libcpu/arm/realview-a8-vmm/mmu.o
 .debug_info    0x0000000000000000      0x22f build/kernel/libcpu/arm/realview-a8-vmm/mmu.o
 .debug_abbrev  0x0000000000000000      0x106 build/kernel/libcpu/arm/realview-a8-vmm/mmu.o
 .debug_loc     0x0000000000000000       0xdc build/kernel/libcpu/arm/realview-a8-vmm/mmu.o
 .debug_aranges
                0x0000000000000000       0x20 build/kernel/libcpu/arm/realview-a8-vmm/mmu.o
 .debug_line    0x0000000000000000      0x175 build/kernel/libcpu/arm/realview-a8-vmm/mmu.o
 .debug_str     0x0000000000000000      0x263 build/kernel/libcpu/arm/realview-a8-vmm/mmu.o
 .comment       0x0000000000000000       0x20 build/kernel/libcpu/arm/realview-a8-vmm/mmu.o
 .ARM.attributes
                0x0000000000000000       0x2f build/kernel/libcpu/arm/realview-a8-vmm/mmu.o
 .debug_frame   0x0000000000000000       0x94 build/kernel/libcpu/arm/realview-a8-vmm/mmu.o
 .text          0x0000000000000000       0xfc build/kernel/libcpu/arm/realview-a8-vmm/pmu.o
 .data          0x0000000000000000        0x0 build/kernel/libcpu/arm/realview-a8-vmm/pmu.o
 .bss           0x0000000000000000        0x0 build/kernel/libcpu/arm/realview-a8-vmm/pmu.o
 .rodata        0x0000000000000000       0x9c build/kernel/libcpu/arm/realview-a8-vmm/pmu.o
 .debug_info    0x0000000000000000      0x147 build/kernel/libcpu/arm/realview-a8-vmm/pmu.o
 .debug_abbrev  0x0000000000000000       0xe9 build/kernel/libcpu/arm/realview-a8-vmm/pmu.o
 .debug_loc     0x0000000000000000       0x58 build/kernel/libcpu/arm/realview-a8-vmm/pmu.o
 .debug_aranges
                0x0000000000000000       0x20 build/kernel/libcpu/arm/realview-a8-vmm/pmu.o
 .debug_line    0x0000000000000000      0x119 build/kernel/libcpu/arm/realview-a8-vmm/pmu.o
 .debug_str     0x0000000000000000      0x1f7 build/kernel/libcpu/arm/realview-a8-vmm/pmu.o
 .comment       0x0000000000000000       0x20 build/kernel/libcpu/arm/realview-a8-vmm/pmu.o
 .ARM.attributes
                0x0000000000000000       0x2f build/kernel/libcpu/arm/realview-a8-vmm/pmu.o
 .debug_frame   0x0000000000000000       0x44 build/kernel/libcpu/arm/realview-a8-vmm/pmu.o
 .data          0x0000000000000000        0x0 build/kernel/libcpu/arm/realview-a8-vmm/stack.o
 .bss           0x0000000000000000        0x0 build/kernel/libcpu/arm/realview-a8-vmm/stack.o
 .data          0x0000000000000000        0x0 build/kernel/libcpu/arm/realview-a8-vmm/trap.o
 .bss           0x0000000000000000        0x0 build/kernel/libcpu/arm/realview-a8-vmm/trap.o
 .data          0x0000000000000000        0x0 build/kernel/libcpu/arm/realview-a8-vmm/context_gcc.o
 .bss           0x0000000000000000        0x0 build/kernel/libcpu/arm/realview-a8-vmm/context_gcc.o
 .bss.share.isr
                0x0000000000000000        0x4 build/kernel/libcpu/arm/realview-a8-vmm/context_gcc.o
 .data          0x0000000000000000        0x0 build/kernel/libcpu/arm/realview-a8-vmm/cp15_gcc.o
 .bss           0x0000000000000000        0x0 build/kernel/libcpu/arm/realview-a8-vmm/cp15_gcc.o
 .data          0x0000000000000000        0x0 build/kernel/libcpu/arm/realview-a8-vmm/start_gcc.o
 .bss           0x0000000000000000        0x0 build/kernel/libcpu/arm/realview-a8-vmm/start_gcc.o
 .text          0x0000000000000000        0x0 build/kernel/libcpu/arm/realview-a8-vmm/vector_gcc.o
 .data          0x0000000000000000        0x0 build/kernel/libcpu/arm/realview-a8-vmm/vector_gcc.o
 .bss           0x0000000000000000        0x0 build/kernel/libcpu/arm/realview-a8-vmm/vector_gcc.o
 .text          0x0000000000000000       0xd0 build/kernel/libcpu/arm/common/backtrace.o
 .data          0x0000000000000000        0x0 build/kernel/libcpu/arm/common/backtrace.o
 .bss           0x0000000000000000        0x0 build/kernel/libcpu/arm/common/backtrace.o
 .rodata        0x0000000000000000       0x1c build/kernel/libcpu/arm/common/backtrace.o
 .debug_info    0x0000000000000000       0xcf build/kernel/libcpu/arm/common/backtrace.o
 .debug_abbrev  0x0000000000000000       0x94 build/kernel/libcpu/arm/common/backtrace.o
 .debug_loc     0x0000000000000000       0x2c build/kernel/libcpu/arm/common/backtrace.o
 .debug_aranges
                0x0000000000000000       0x20 build/kernel/libcpu/arm/common/backtrace.o
 .debug_line    0x0000000000000000       0xff build/kernel/libcpu/arm/common/backtrace.o
 .debug_str     0x0000000000000000      0x1bf build/kernel/libcpu/arm/common/backtrace.o
 .comment       0x0000000000000000       0x20 build/kernel/libcpu/arm/common/backtrace.o
 .ARM.attributes
                0x0000000000000000       0x2f build/kernel/libcpu/arm/common/backtrace.o
 .debug_frame   0x0000000000000000       0x2c build/kernel/libcpu/arm/common/backtrace.o
 .text          0x0000000000000000        0xc build/kernel/libcpu/arm/common/div0.o
 .data          0x0000000000000000        0x0 build/kernel/libcpu/arm/common/div0.o
 .bss           0x0000000000000000        0x0 build/kernel/libcpu/arm/common/div0.o
 .debug_info    0x0000000000000000       0x38 build/kernel/libcpu/arm/common/div0.o
 .debug_abbrev  0x0000000000000000       0x2a build/kernel/libcpu/arm/common/div0.o
 .debug_loc     0x0000000000000000       0x2c build/kernel/libcpu/arm/common/div0.o
 .debug_aranges
                0x0000000000000000       0x20 build/kernel/libcpu/arm/common/div0.o
 .debug_line    0x0000000000000000       0x8b build/kernel/libcpu/arm/common/div0.o
 .debug_str     0x0000000000000000       0xdd build/kernel/libcpu/arm/common/div0.o
 .comment       0x0000000000000000       0x20 build/kernel/libcpu/arm/common/div0.o
 .ARM.attributes
                0x0000000000000000       0x2f build/kernel/libcpu/arm/common/div0.o
 .debug_frame   0x0000000000000000       0x28 build/kernel/libcpu/arm/common/div0.o
 .text          0x0000000000000000      0x158 build/kernel/libcpu/arm/common/showmem.o
 .data          0x0000000000000000        0x0 build/kernel/libcpu/arm/common/showmem.o
 .bss           0x0000000000000000        0x0 build/kernel/libcpu/arm/common/showmem.o
 .rodata        0x0000000000000000       0x58 build/kernel/libcpu/arm/common/showmem.o
 .debug_info    0x0000000000000000      0x14c build/kernel/libcpu/arm/common/showmem.o
 .debug_abbrev  0x0000000000000000       0xde build/kernel/libcpu/arm/common/showmem.o
 .debug_loc     0x0000000000000000       0x2c build/kernel/libcpu/arm/common/showmem.o
 .debug_aranges
                0x0000000000000000       0x20 build/kernel/libcpu/arm/common/showmem.o
 .debug_line    0x0000000000000000      0x129 build/kernel/libcpu/arm/common/showmem.o
 .debug_str     0x0000000000000000      0x1e8 build/kernel/libcpu/arm/common/showmem.o
 .comment       0x0000000000000000       0x20 build/kernel/libcpu/arm/common/showmem.o
 .ARM.attributes
                0x0000000000000000       0x2f build/kernel/libcpu/arm/common/showmem.o
 .debug_frame   0x0000000000000000       0x2c build/kernel/libcpu/arm/common/showmem.o
 .data          0x0000000000000000        0x0 build/kernel/components/finsh/shell.o
 .text          0x0000000000000000        0x0 build/kernel/components/finsh/symbol.o
 .data          0x0000000000000000        0x0 build/kernel/components/finsh/symbol.o
 .data          0x0000000000000000        0x0 build/kernel/components/finsh/cmd.o
 .data          0x0000000000000000        0x0 build/kernel/components/finsh/msh_cmd.o
 .bss           0x0000000000000000        0x0 build/kernel/components/finsh/msh_cmd.o
 .bss           0x0000000000000000        0x0 build/kernel/components/finsh/msh.o
 .data          0x0000000000000000        0x0 build/kernel/components/finsh/finsh_compiler.o
 .bss           0x0000000000000000        0x0 build/kernel/components/finsh/finsh_compiler.o
 .bss           0x0000000000000000        0x0 build/kernel/components/finsh/finsh_error.o
 .data          0x0000000000000000        0x0 build/kernel/components/finsh/finsh_heap.o
 .data          0x0000000000000000        0x0 build/kernel/components/finsh/finsh_init.o
 .bss           0x0000000000000000        0x0 build/kernel/components/finsh/finsh_init.o
 .data          0x0000000000000000        0x0 build/kernel/components/finsh/finsh_node.o
 .bss           0x0000000000000000        0x0 build/kernel/components/finsh/finsh_node.o
 .data          0x0000000000000000        0x0 build/kernel/components/finsh/finsh_ops.o
 .bss           0x0000000000000000        0x0 build/kernel/components/finsh/finsh_ops.o
 .data          0x0000000000000000        0x0 build/kernel/components/finsh/finsh_parser.o
 .bss           0x0000000000000000        0x0 build/kernel/components/finsh/finsh_parser.o
 .data          0x0000000000000000        0x0 build/kernel/components/finsh/finsh_var.o
 .bss           0x0000000000000000        0x0 build/kernel/components/finsh/finsh_var.o
 .data          0x0000000000000000        0x0 build/kernel/components/finsh/finsh_vm.o
 .data          0x0000000000000000        0x0 build/kernel/components/finsh/finsh_token.o
 .bss           0x0000000000000000        0x0 build/kernel/components/finsh/finsh_token.o
 .data          0x0000000000000000        0x0 build/kernel/components/pthreads/clock_time.o
 .bss           0x0000000000000000        0x0 build/kernel/components/pthreads/clock_time.o
 .data          0x0000000000000000        0x0 build/kernel/components/pthreads/mqueue.o
 .data          0x0000000000000000        0x0 build/kernel/components/pthreads/pthread.o
 .data          0x0000000000000000        0x0 build/kernel/components/pthreads/pthread_attr.o
 .bss           0x0000000000000000        0x0 build/kernel/components/pthreads/pthread_attr.o
 .text          0x0000000000000000      0x2d0 build/kernel/components/pthreads/pthread_barrier.o
 .data          0x0000000000000000        0x0 build/kernel/components/pthreads/pthread_barrier.o
 .bss           0x0000000000000000        0x0 build/kernel/components/pthreads/pthread_barrier.o
 .debug_info    0x0000000000000000      0x67e build/kernel/components/pthreads/pthread_barrier.o
 .debug_abbrev  0x0000000000000000      0x147 build/kernel/components/pthreads/pthread_barrier.o
 .debug_loc     0x0000000000000000      0x134 build/kernel/components/pthreads/pthread_barrier.o
 .debug_aranges
                0x0000000000000000       0x20 build/kernel/components/pthreads/pthread_barrier.o
 .debug_line    0x0000000000000000      0x132 build/kernel/components/pthreads/pthread_barrier.o
 .debug_str     0x0000000000000000      0x50e build/kernel/components/pthreads/pthread_barrier.o
 .comment       0x0000000000000000       0x20 build/kernel/components/pthreads/pthread_barrier.o
 .ARM.attributes
                0x0000000000000000       0x2f build/kernel/components/pthreads/pthread_barrier.o
 .debug_frame   0x0000000000000000       0xc4 build/kernel/components/pthreads/pthread_barrier.o
 .text          0x0000000000000000      0x5b8 build/kernel/components/pthreads/pthread_cond.o
 .data          0x0000000000000000        0x0 build/kernel/components/pthreads/pthread_cond.o
 .bss           0x0000000000000000        0x2 build/kernel/components/pthreads/pthread_cond.o
 .rodata        0x0000000000000000        0xc build/kernel/components/pthreads/pthread_cond.o
 .debug_info    0x0000000000000000      0x8dc build/kernel/components/pthreads/pthread_cond.o
 .debug_abbrev  0x0000000000000000      0x156 build/kernel/components/pthreads/pthread_cond.o
 .debug_loc     0x0000000000000000      0x268 build/kernel/components/pthreads/pthread_cond.o
 .debug_aranges
                0x0000000000000000       0x20 build/kernel/components/pthreads/pthread_cond.o
 .debug_line    0x0000000000000000      0x1be build/kernel/components/pthreads/pthread_cond.o
 .debug_str     0x0000000000000000      0x5da build/kernel/components/pthreads/pthread_cond.o
 .comment       0x0000000000000000       0x20 build/kernel/components/pthreads/pthread_cond.o
 .ARM.attributes
                0x0000000000000000       0x2f build/kernel/components/pthreads/pthread_cond.o
 .debug_frame   0x0000000000000000      0x184 build/kernel/components/pthreads/pthread_cond.o
 .text          0x0000000000000000      0x5dc build/kernel/components/pthreads/pthread_mutex.o
 .data          0x0000000000000000        0x0 build/kernel/components/pthreads/pthread_mutex.o
 .bss           0x0000000000000000        0x2 build/kernel/components/pthreads/pthread_mutex.o
 .rodata        0x0000000000000000       0x10 build/kernel/components/pthreads/pthread_mutex.o
 .debug_info    0x0000000000000000      0x744 build/kernel/components/pthreads/pthread_mutex.o
 .debug_abbrev  0x0000000000000000      0x14e build/kernel/components/pthreads/pthread_mutex.o
 .debug_loc     0x0000000000000000      0x1e4 build/kernel/components/pthreads/pthread_mutex.o
 .debug_aranges
                0x0000000000000000       0x20 build/kernel/components/pthreads/pthread_mutex.o
 .debug_line    0x0000000000000000      0x189 build/kernel/components/pthreads/pthread_mutex.o
 .debug_str     0x0000000000000000      0x5a4 build/kernel/components/pthreads/pthread_mutex.o
 .comment       0x0000000000000000       0x20 build/kernel/components/pthreads/pthread_mutex.o
 .ARM.attributes
                0x0000000000000000       0x2f build/kernel/components/pthreads/pthread_mutex.o
 .debug_frame   0x0000000000000000      0x134 build/kernel/components/pthreads/pthread_mutex.o
 .text          0x0000000000000000      0xa54 build/kernel/components/pthreads/pthread_rwlock.o
 .data          0x0000000000000000        0x0 build/kernel/components/pthreads/pthread_rwlock.o
 .bss           0x0000000000000000        0x0 build/kernel/components/pthreads/pthread_rwlock.o
 .debug_info    0x0000000000000000      0x86e build/kernel/components/pthreads/pthread_rwlock.o
 .debug_abbrev  0x0000000000000000      0x181 build/kernel/components/pthreads/pthread_rwlock.o
 .debug_loc     0x0000000000000000      0x23c build/kernel/components/pthreads/pthread_rwlock.o
 .debug_aranges
                0x0000000000000000       0x20 build/kernel/components/pthreads/pthread_rwlock.o
 .debug_line    0x0000000000000000      0x21c build/kernel/components/pthreads/pthread_rwlock.o
 .debug_str     0x0000000000000000      0x601 build/kernel/components/pthreads/pthread_rwlock.o
 .comment       0x0000000000000000       0x20 build/kernel/components/pthreads/pthread_rwlock.o
 .ARM.attributes
                0x0000000000000000       0x2f build/kernel/components/pthreads/pthread_rwlock.o
 .debug_frame   0x0000000000000000      0x16c build/kernel/components/pthreads/pthread_rwlock.o
 .text          0x0000000000000000      0x190 build/kernel/components/pthreads/pthread_spin.o
 .data          0x0000000000000000        0x0 build/kernel/components/pthreads/pthread_spin.o
 .bss           0x0000000000000000        0x0 build/kernel/components/pthreads/pthread_spin.o
 .debug_info    0x0000000000000000      0x191 build/kernel/components/pthreads/pthread_spin.o
 .debug_abbrev  0x0000000000000000       0xa3 build/kernel/components/pthreads/pthread_spin.o
 .debug_loc     0x0000000000000000       0xdc build/kernel/components/pthreads/pthread_spin.o
 .debug_aranges
                0x0000000000000000       0x20 build/kernel/components/pthreads/pthread_spin.o
 .debug_line    0x0000000000000000       0xc5 build/kernel/components/pthreads/pthread_spin.o
 .debug_str     0x0000000000000000      0x255 build/kernel/components/pthreads/pthread_spin.o
 .comment       0x0000000000000000       0x20 build/kernel/components/pthreads/pthread_spin.o
 .ARM.attributes
                0x0000000000000000       0x2f build/kernel/components/pthreads/pthread_spin.o
 .debug_frame   0x0000000000000000       0x88 build/kernel/components/pthreads/pthread_spin.o
 .data          0x0000000000000000        0x0 build/kernel/components/pthreads/pthread_tls.o
 .bss           0x0000000000000000        0x0 build/kernel/components/pthreads/pthread_tls.o
 .text          0x0000000000000000       0xc8 build/kernel/components/pthreads/sched.o
 .data          0x0000000000000000        0x0 build/kernel/components/pthreads/sched.o
 .bss           0x0000000000000000        0x0 build/kernel/components/pthreads/sched.o
 .debug_info    0x0000000000000000      0x157 build/kernel/components/pthreads/sched.o
 .debug_abbrev  0x0000000000000000       0xbb build/kernel/components/pthreads/sched.o
 .debug_loc     0x0000000000000000       0xb0 build/kernel/components/pthreads/sched.o
 .debug_aranges
                0x0000000000000000       0x20 build/kernel/components/pthreads/sched.o
 .debug_line    0x0000000000000000       0xd7 build/kernel/components/pthreads/sched.o
 .debug_str     0x0000000000000000      0x249 build/kernel/components/pthreads/sched.o
 .comment       0x0000000000000000       0x20 build/kernel/components/pthreads/sched.o
 .ARM.attributes
                0x0000000000000000       0x2f build/kernel/components/pthreads/sched.o
 .debug_frame   0x0000000000000000       0x74 build/kernel/components/pthreads/sched.o
 .data          0x0000000000000000        0x0 build/kernel/components/pthreads/semaphore.o
 .data          0x0000000000000000        0x0 build/kernel/components/libc/newlib/libc.o
 .bss           0x0000000000000000        0x0 build/kernel/components/libc/newlib/libc.o
 .data          0x0000000000000000        0x0 build/kernel/components/libc/newlib/syscalls.o
 .bss           0x0000000000000000        0x0 build/kernel/components/libc/newlib/syscalls.o
 .text          0x0000000000000000        0x0 build/kernel/components/utilities/logtrace/log_file.o
 .data          0x0000000000000000        0x0 build/kernel/components/utilities/logtrace/log_file.o
 .bss           0x0000000000000000        0x0 build/kernel/components/utilities/logtrace/log_file.o
 .debug_info    0x0000000000000000       0x5d build/kernel/components/utilities/logtrace/log_file.o
 .debug_abbrev  0x0000000000000000       0x26 build/kernel/components/utilities/logtrace/log_file.o
 .debug_aranges
                0x0000000000000000       0x18 build/kernel/components/utilities/logtrace/log_file.o
 .debug_line    0x0000000000000000       0x1d build/kernel/components/utilities/logtrace/log_file.o
 .debug_str     0x0000000000000000      0x196 build/kernel/components/utilities/logtrace/log_file.o
 .comment       0x0000000000000000       0x20 build/kernel/components/utilities/logtrace/log_file.o
 .ARM.attributes
                0x0000000000000000       0x2f build/kernel/components/utilities/logtrace/log_file.o
 .data          0x0000000000000000        0x0 build/kernel/components/drivers/src/completion.o
 .bss           0x0000000000000000        0x0 build/kernel/components/drivers/src/completion.o
 .data          0x0000000000000000        0x0 build/kernel/components/drivers/src/dataqueue.o
 .bss           0x0000000000000000        0x0 build/kernel/components/drivers/src/dataqueue.o
 .text          0x0000000000000000      0xcf8 build/kernel/components/drivers/src/pipe.o
 .data          0x0000000000000000        0x0 build/kernel/components/drivers/src/pipe.o
 .bss           0x0000000000000000        0x0 build/kernel/components/drivers/src/pipe.o
 .rodata        0x0000000000000000      0x10c build/kernel/components/drivers/src/pipe.o
 .debug_info    0x0000000000000000      0xcfa build/kernel/components/drivers/src/pipe.o
 .debug_abbrev  0x0000000000000000      0x232 build/kernel/components/drivers/src/pipe.o
 .debug_loc     0x0000000000000000      0x268 build/kernel/components/drivers/src/pipe.o
 .debug_aranges
                0x0000000000000000       0x20 build/kernel/components/drivers/src/pipe.o
 .debug_line    0x0000000000000000      0x29a build/kernel/components/drivers/src/pipe.o
 .debug_str     0x0000000000000000      0x847 build/kernel/components/drivers/src/pipe.o
 .comment       0x0000000000000000       0x20 build/kernel/components/drivers/src/pipe.o
 .ARM.attributes
                0x0000000000000000       0x2f build/kernel/components/drivers/src/pipe.o
 .debug_frame   0x0000000000000000      0x190 build/kernel/components/drivers/src/pipe.o
 .text          0x0000000000000000      0x954 build/kernel/components/drivers/src/portal.o
 .data          0x0000000000000000        0x0 build/kernel/components/drivers/src/portal.o
 .bss           0x0000000000000000        0x0 build/kernel/components/drivers/src/portal.o
 .rodata        0x0000000000000000       0xe4 build/kernel/components/drivers/src/portal.o
 .debug_info    0x0000000000000000      0x9e0 build/kernel/components/drivers/src/portal.o
 .debug_abbrev  0x0000000000000000      0x1ca build/kernel/components/drivers/src/portal.o
 .debug_loc     0x0000000000000000      0x1e4 build/kernel/components/drivers/src/portal.o
 .debug_aranges
                0x0000000000000000       0x20 build/kernel/components/drivers/src/portal.o
 .debug_line    0x0000000000000000      0x241 build/kernel/components/drivers/src/portal.o
 .debug_str     0x0000000000000000      0x69c build/kernel/components/drivers/src/portal.o
 .comment       0x0000000000000000       0x20 build/kernel/components/drivers/src/portal.o
 .ARM.attributes
                0x0000000000000000       0x2f build/kernel/components/drivers/src/portal.o
 .debug_frame   0x0000000000000000      0x144 build/kernel/components/drivers/src/portal.o
 .text          0x0000000000000000     0x112c build/kernel/components/drivers/src/ringbuffer.o
 .data          0x0000000000000000        0x0 build/kernel/components/drivers/src/ringbuffer.o
 .bss           0x0000000000000000        0x0 build/kernel/components/drivers/src/ringbuffer.o
 .rodata        0x0000000000000000       0xdc build/kernel/components/drivers/src/ringbuffer.o
 .debug_info    0x0000000000000000      0x58e build/kernel/components/drivers/src/ringbuffer.o
 .debug_abbrev  0x0000000000000000      0x1be build/kernel/components/drivers/src/ringbuffer.o
 .debug_loc     0x0000000000000000      0x18c build/kernel/components/drivers/src/ringbuffer.o
 .debug_aranges
                0x0000000000000000       0x20 build/kernel/components/drivers/src/ringbuffer.o
 .debug_line    0x0000000000000000      0x292 build/kernel/components/drivers/src/ringbuffer.o
 .debug_str     0x0000000000000000      0x3ae build/kernel/components/drivers/src/ringbuffer.o
 .comment       0x0000000000000000       0x20 build/kernel/components/drivers/src/ringbuffer.o
 .ARM.attributes
                0x0000000000000000       0x2f build/kernel/components/drivers/src/ringbuffer.o
 .debug_frame   0x0000000000000000      0x114 build/kernel/components/drivers/src/ringbuffer.o
 .text          0x0000000000000000      0x674 build/kernel/components/drivers/src/workqueue.o
 .data          0x0000000000000000        0x0 build/kernel/components/drivers/src/workqueue.o
 .bss           0x0000000000000000        0x0 build/kernel/components/drivers/src/workqueue.o
 .rodata        0x0000000000000000       0xa4 build/kernel/components/drivers/src/workqueue.o
 .debug_info    0x0000000000000000      0x73c build/kernel/components/drivers/src/workqueue.o
 .debug_abbrev  0x0000000000000000      0x194 build/kernel/components/drivers/src/workqueue.o
 .debug_loc     0x0000000000000000      0x18c build/kernel/components/drivers/src/workqueue.o
 .debug_aranges
                0x0000000000000000       0x20 build/kernel/components/drivers/src/workqueue.o
 .debug_line    0x0000000000000000      0x212 build/kernel/components/drivers/src/workqueue.o
 .debug_str     0x0000000000000000      0x43d build/kernel/components/drivers/src/workqueue.o
 .comment       0x0000000000000000       0x20 build/kernel/components/drivers/src/workqueue.o
 .ARM.attributes
                0x0000000000000000       0x2f build/kernel/components/drivers/src/workqueue.o
 .debug_frame   0x0000000000000000       0xfc build/kernel/components/drivers/src/workqueue.o
 .data          0x0000000000000000        0x0 build/kernel/components/drivers/serial/serial.o
 .bss           0x0000000000000000        0x0 build/kernel/components/drivers/serial/serial.o
 .text          0x0000000000000000        0x0 /usr/lib/gcc/arm-none-eabi/4.8.2/../../../arm-none-eabi/lib/armv7-ar/thumb/softfp/libc.a(lib_a-atexit.o)
 .data          0x0000000000000000        0x0 /usr/lib/gcc/arm-none-eabi/4.8.2/../../../arm-none-eabi/lib/armv7-ar/thumb/softfp/libc.a(lib_a-atexit.o)
 .bss           0x0000000000000000        0x0 /usr/lib/gcc/arm-none-eabi/4.8.2/../../../arm-none-eabi/lib/armv7-ar/thumb/softfp/libc.a(lib_a-atexit.o)
 .text.atexit   0x0000000000000000        0xc /usr/lib/gcc/arm-none-eabi/4.8.2/../../../arm-none-eabi/lib/armv7-ar/thumb/softfp/libc.a(lib_a-atexit.o)
 .debug_info    0x0000000000000000      0x10a /usr/lib/gcc/arm-none-eabi/4.8.2/../../../arm-none-eabi/lib/armv7-ar/thumb/softfp/libc.a(lib_a-atexit.o)
 .debug_abbrev  0x0000000000000000       0xb8 /usr/lib/gcc/arm-none-eabi/4.8.2/../../../arm-none-eabi/lib/armv7-ar/thumb/softfp/libc.a(lib_a-atexit.o)
 .debug_loc     0x0000000000000000       0x2c /usr/lib/gcc/arm-none-eabi/4.8.2/../../../arm-none-eabi/lib/armv7-ar/thumb/softfp/libc.a(lib_a-atexit.o)
 .debug_aranges
                0x0000000000000000       0x20 /usr/lib/gcc/arm-none-eabi/4.8.2/../../../arm-none-eabi/lib/armv7-ar/thumb/softfp/libc.a(lib_a-atexit.o)
 .debug_ranges  0x0000000000000000       0x10 /usr/lib/gcc/arm-none-eabi/4.8.2/../../../arm-none-eabi/lib/armv7-ar/thumb/softfp/libc.a(lib_a-atexit.o)
 .debug_line    0x0000000000000000       0xac /usr/lib/gcc/arm-none-eabi/4.8.2/../../../arm-none-eabi/lib/armv7-ar/thumb/softfp/libc.a(lib_a-atexit.o)
 .debug_str     0x0000000000000000      0x22f /usr/lib/gcc/arm-none-eabi/4.8.2/../../../arm-none-eabi/lib/armv7-ar/thumb/softfp/libc.a(lib_a-atexit.o)
 .comment       0x0000000000000000       0x20 /usr/lib/gcc/arm-none-eabi/4.8.2/../../../arm-none-eabi/lib/armv7-ar/thumb/softfp/libc.a(lib_a-atexit.o)
 .ARM.attributes
                0x0000000000000000       0x2d /usr/lib/gcc/arm-none-eabi/4.8.2/../../../arm-none-eabi/lib/armv7-ar/thumb/softfp/libc.a(lib_a-atexit.o)
 .debug_frame   0x0000000000000000       0x20 /usr/lib/gcc/arm-none-eabi/4.8.2/../../../arm-none-eabi/lib/armv7-ar/thumb/softfp/libc.a(lib_a-atexit.o)
 .text          0x0000000000000000        0x0 /usr/lib/gcc/arm-none-eabi/4.8.2/../../../arm-none-eabi/lib/armv7-ar/thumb/softfp/libc.a(lib_a-atoi.o)
 .data          0x0000000000000000        0x0 /usr/lib/gcc/arm-none-eabi/4.8.2/../../../arm-none-eabi/lib/armv7-ar/thumb/softfp/libc.a(lib_a-atoi.o)
 .bss           0x0000000000000000        0x0 /usr/lib/gcc/arm-none-eabi/4.8.2/../../../arm-none-eabi/lib/armv7-ar/thumb/softfp/libc.a(lib_a-atoi.o)
 .text._atoi_r  0x0000000000000000        0x8 /usr/lib/gcc/arm-none-eabi/4.8.2/../../../arm-none-eabi/lib/armv7-ar/thumb/softfp/libc.a(lib_a-atoi.o)
 .text          0x0000000000000000        0x0 /usr/lib/gcc/arm-none-eabi/4.8.2/../../../arm-none-eabi/lib/armv7-ar/thumb/softfp/libc.a(lib_a-exit.o)
 .data          0x0000000000000000        0x0 /usr/lib/gcc/arm-none-eabi/4.8.2/../../../arm-none-eabi/lib/armv7-ar/thumb/softfp/libc.a(lib_a-exit.o)
 .bss           0x0000000000000000        0x0 /usr/lib/gcc/arm-none-eabi/4.8.2/../../../arm-none-eabi/lib/armv7-ar/thumb/softfp/libc.a(lib_a-exit.o)
 .text.exit     0x0000000000000000       0x20 /usr/lib/gcc/arm-none-eabi/4.8.2/../../../arm-none-eabi/lib/armv7-ar/thumb/softfp/libc.a(lib_a-exit.o)
 .debug_info    0x0000000000000000      0x8e4 /usr/lib/gcc/arm-none-eabi/4.8.2/../../../arm-none-eabi/lib/armv7-ar/thumb/softfp/libc.a(lib_a-exit.o)
 .debug_abbrev  0x0000000000000000      0x1e6 /usr/lib/gcc/arm-none-eabi/4.8.2/../../../arm-none-eabi/lib/armv7-ar/thumb/softfp/libc.a(lib_a-exit.o)
 .debug_loc     0x0000000000000000       0x1e /usr/lib/gcc/arm-none-eabi/4.8.2/../../../arm-none-eabi/lib/armv7-ar/thumb/softfp/libc.a(lib_a-exit.o)
 .debug_aranges
                0x0000000000000000       0x20 /usr/lib/gcc/arm-none-eabi/4.8.2/../../../arm-none-eabi/lib/armv7-ar/thumb/softfp/libc.a(lib_a-exit.o)
 .debug_ranges  0x0000000000000000       0x10 /usr/lib/gcc/arm-none-eabi/4.8.2/../../../arm-none-eabi/lib/armv7-ar/thumb/softfp/libc.a(lib_a-exit.o)
 .debug_line    0x0000000000000000      0x145 /usr/lib/gcc/arm-none-eabi/4.8.2/../../../arm-none-eabi/lib/armv7-ar/thumb/softfp/libc.a(lib_a-exit.o)
 .debug_str     0x0000000000000000      0x5cc /usr/lib/gcc/arm-none-eabi/4.8.2/../../../arm-none-eabi/lib/armv7-ar/thumb/softfp/libc.a(lib_a-exit.o)
 .comment       0x0000000000000000       0x20 /usr/lib/gcc/arm-none-eabi/4.8.2/../../../arm-none-eabi/lib/armv7-ar/thumb/softfp/libc.a(lib_a-exit.o)
 .ARM.attributes
                0x0000000000000000       0x2d /usr/lib/gcc/arm-none-eabi/4.8.2/../../../arm-none-eabi/lib/armv7-ar/thumb/softfp/libc.a(lib_a-exit.o)
 .debug_frame   0x0000000000000000       0x28 /usr/lib/gcc/arm-none-eabi/4.8.2/../../../arm-none-eabi/lib/armv7-ar/thumb/softfp/libc.a(lib_a-exit.o)
 .text          0x0000000000000000        0x0 /usr/lib/gcc/arm-none-eabi/4.8.2/../../../arm-none-eabi/lib/armv7-ar/thumb/softfp/libc.a(lib_a-fini.o)
 .data          0x0000000000000000        0x0 /usr/lib/gcc/arm-none-eabi/4.8.2/../../../arm-none-eabi/lib/armv7-ar/thumb/softfp/libc.a(lib_a-fini.o)
 .bss           0x0000000000000000        0x0 /usr/lib/gcc/arm-none-eabi/4.8.2/../../../arm-none-eabi/lib/armv7-ar/thumb/softfp/libc.a(lib_a-fini.o)
 .text.__libc_fini_array
                0x0000000000000000       0x34 /usr/lib/gcc/arm-none-eabi/4.8.2/../../../arm-none-eabi/lib/armv7-ar/thumb/softfp/libc.a(lib_a-fini.o)
 .debug_info    0x0000000000000000       0xef /usr/lib/gcc/arm-none-eabi/4.8.2/../../../arm-none-eabi/lib/armv7-ar/thumb/softfp/libc.a(lib_a-fini.o)
 .debug_abbrev  0x0000000000000000       0xbd /usr/lib/gcc/arm-none-eabi/4.8.2/../../../arm-none-eabi/lib/armv7-ar/thumb/softfp/libc.a(lib_a-fini.o)
 .debug_loc     0x0000000000000000       0x5c /usr/lib/gcc/arm-none-eabi/4.8.2/../../../arm-none-eabi/lib/armv7-ar/thumb/softfp/libc.a(lib_a-fini.o)
 .debug_aranges
                0x0000000000000000       0x20 /usr/lib/gcc/arm-none-eabi/4.8.2/../../../arm-none-eabi/lib/armv7-ar/thumb/softfp/libc.a(lib_a-fini.o)
 .debug_ranges  0x0000000000000000       0x10 /usr/lib/gcc/arm-none-eabi/4.8.2/../../../arm-none-eabi/lib/armv7-ar/thumb/softfp/libc.a(lib_a-fini.o)
 .debug_line    0x0000000000000000       0xa2 /usr/lib/gcc/arm-none-eabi/4.8.2/../../../arm-none-eabi/lib/armv7-ar/thumb/softfp/libc.a(lib_a-fini.o)
 .debug_str     0x0000000000000000      0x227 /usr/lib/gcc/arm-none-eabi/4.8.2/../../../arm-none-eabi/lib/armv7-ar/thumb/softfp/libc.a(lib_a-fini.o)
 .comment       0x0000000000000000       0x20 /usr/lib/gcc/arm-none-eabi/4.8.2/../../../arm-none-eabi/lib/armv7-ar/thumb/softfp/libc.a(lib_a-fini.o)
 .ARM.attributes
                0x0000000000000000       0x2d /usr/lib/gcc/arm-none-eabi/4.8.2/../../../arm-none-eabi/lib/armv7-ar/thumb/softfp/libc.a(lib_a-fini.o)
 .debug_frame   0x0000000000000000       0x2c /usr/lib/gcc/arm-none-eabi/4.8.2/../../../arm-none-eabi/lib/armv7-ar/thumb/softfp/libc.a(lib_a-fini.o)
 .text          0x0000000000000000        0x0 /usr/lib/gcc/arm-none-eabi/4.8.2/../../../arm-none-eabi/lib/armv7-ar/thumb/softfp/libc.a(lib_a-impure.o)
 .data          0x0000000000000000        0x0 /usr/lib/gcc/arm-none-eabi/4.8.2/../../../arm-none-eabi/lib/armv7-ar/thumb/softfp/libc.a(lib_a-impure.o)
 .bss           0x0000000000000000        0x0 /usr/lib/gcc/arm-none-eabi/4.8.2/../../../arm-none-eabi/lib/armv7-ar/thumb/softfp/libc.a(lib_a-impure.o)
 .rodata._global_impure_ptr
                0x0000000000000000        0x4 /usr/lib/gcc/arm-none-eabi/4.8.2/../../../arm-none-eabi/lib/armv7-ar/thumb/softfp/libc.a(lib_a-impure.o)
 .text          0x0000000000000000        0x0 /usr/lib/gcc/arm-none-eabi/4.8.2/../../../arm-none-eabi/lib/armv7-ar/thumb/softfp/libc.a(lib_a-init.o)
 .data          0x0000000000000000        0x0 /usr/lib/gcc/arm-none-eabi/4.8.2/../../../arm-none-eabi/lib/armv7-ar/thumb/softfp/libc.a(lib_a-init.o)
 .bss           0x0000000000000000        0x0 /usr/lib/gcc/arm-none-eabi/4.8.2/../../../arm-none-eabi/lib/armv7-ar/thumb/softfp/libc.a(lib_a-init.o)
 .text.__libc_init_array
                0x0000000000000000       0x5c /usr/lib/gcc/arm-none-eabi/4.8.2/../../../arm-none-eabi/lib/armv7-ar/thumb/softfp/libc.a(lib_a-init.o)
 .debug_info    0x0000000000000000      0x105 /usr/lib/gcc/arm-none-eabi/4.8.2/../../../arm-none-eabi/lib/armv7-ar/thumb/softfp/libc.a(lib_a-init.o)
 .debug_abbrev  0x0000000000000000       0xba /usr/lib/gcc/arm-none-eabi/4.8.2/../../../arm-none-eabi/lib/armv7-ar/thumb/softfp/libc.a(lib_a-init.o)
 .debug_loc     0x0000000000000000       0xae /usr/lib/gcc/arm-none-eabi/4.8.2/../../../arm-none-eabi/lib/armv7-ar/thumb/softfp/libc.a(lib_a-init.o)
 .debug_aranges
                0x0000000000000000       0x20 /usr/lib/gcc/arm-none-eabi/4.8.2/../../../arm-none-eabi/lib/armv7-ar/thumb/softfp/libc.a(lib_a-init.o)
 .debug_ranges  0x0000000000000000       0x10 /usr/lib/gcc/arm-none-eabi/4.8.2/../../../arm-none-eabi/lib/armv7-ar/thumb/softfp/libc.a(lib_a-init.o)
 .debug_line    0x0000000000000000       0xbb /usr/lib/gcc/arm-none-eabi/4.8.2/../../../arm-none-eabi/lib/armv7-ar/thumb/softfp/libc.a(lib_a-init.o)
 .debug_str     0x0000000000000000      0x251 /usr/lib/gcc/arm-none-eabi/4.8.2/../../../arm-none-eabi/lib/armv7-ar/thumb/softfp/libc.a(lib_a-init.o)
 .comment       0x0000000000000000       0x20 /usr/lib/gcc/arm-none-eabi/4.8.2/../../../arm-none-eabi/lib/armv7-ar/thumb/softfp/libc.a(lib_a-init.o)
 .ARM.attributes
                0x0000000000000000       0x2d /usr/lib/gcc/arm-none-eabi/4.8.2/../../../arm-none-eabi/lib/armv7-ar/thumb/softfp/libc.a(lib_a-init.o)
 .debug_frame   0x0000000000000000       0x2c /usr/lib/gcc/arm-none-eabi/4.8.2/../../../arm-none-eabi/lib/armv7-ar/thumb/softfp/libc.a(lib_a-init.o)
 .text          0x0000000000000000        0x0 /usr/lib/gcc/arm-none-eabi/4.8.2/../../../arm-none-eabi/lib/armv7-ar/thumb/softfp/libc.a(lib_a-memcpy-stub.o)
 .data          0x0000000000000000        0x0 /usr/lib/gcc/arm-none-eabi/4.8.2/../../../arm-none-eabi/lib/armv7-ar/thumb/softfp/libc.a(lib_a-memcpy-stub.o)
 .bss           0x0000000000000000        0x0 /usr/lib/gcc/arm-none-eabi/4.8.2/../../../arm-none-eabi/lib/armv7-ar/thumb/softfp/libc.a(lib_a-memcpy-stub.o)
 .text          0x0000000000000000        0x0 /usr/lib/gcc/arm-none-eabi/4.8.2/../../../arm-none-eabi/lib/armv7-ar/thumb/softfp/libc.a(lib_a-memset.o)
 .data          0x0000000000000000        0x0 /usr/lib/gcc/arm-none-eabi/4.8.2/../../../arm-none-eabi/lib/armv7-ar/thumb/softfp/libc.a(lib_a-memset.o)
 .bss           0x0000000000000000        0x0 /usr/lib/gcc/arm-none-eabi/4.8.2/../../../arm-none-eabi/lib/armv7-ar/thumb/softfp/libc.a(lib_a-memset.o)
 .text          0x0000000000000000        0x0 /usr/lib/gcc/arm-none-eabi/4.8.2/../../../arm-none-eabi/lib/armv7-ar/thumb/softfp/libc.a(lib_a-putenv.o)
 .data          0x0000000000000000        0x0 /usr/lib/gcc/arm-none-eabi/4.8.2/../../../arm-none-eabi/lib/armv7-ar/thumb/softfp/libc.a(lib_a-putenv.o)
 .bss           0x0000000000000000        0x0 /usr/lib/gcc/arm-none-eabi/4.8.2/../../../arm-none-eabi/lib/armv7-ar/thumb/softfp/libc.a(lib_a-putenv.o)
 .text          0x0000000000000000        0x0 /usr/lib/gcc/arm-none-eabi/4.8.2/../../../arm-none-eabi/lib/armv7-ar/thumb/softfp/libc.a(lib_a-putenv_r.o)
 .data          0x0000000000000000        0x0 /usr/lib/gcc/arm-none-eabi/4.8.2/../../../arm-none-eabi/lib/armv7-ar/thumb/softfp/libc.a(lib_a-putenv_r.o)
 .bss           0x0000000000000000        0x0 /usr/lib/gcc/arm-none-eabi/4.8.2/../../../arm-none-eabi/lib/armv7-ar/thumb/softfp/libc.a(lib_a-putenv_r.o)
 .text          0x0000000000000000        0x0 /usr/lib/gcc/arm-none-eabi/4.8.2/../../../arm-none-eabi/lib/armv7-ar/thumb/softfp/libc.a(lib_a-setenv_r.o)
 .data          0x0000000000000000        0x0 /usr/lib/gcc/arm-none-eabi/4.8.2/../../../arm-none-eabi/lib/armv7-ar/thumb/softfp/libc.a(lib_a-setenv_r.o)
 .bss           0x0000000000000000        0x0 /usr/lib/gcc/arm-none-eabi/4.8.2/../../../arm-none-eabi/lib/armv7-ar/thumb/softfp/libc.a(lib_a-setenv_r.o)
 .text._unsetenv_r
                0x0000000000000000       0x78 /usr/lib/gcc/arm-none-eabi/4.8.2/../../../arm-none-eabi/lib/armv7-ar/thumb/softfp/libc.a(lib_a-setenv_r.o)
 .text          0x0000000000000000        0x0 /usr/lib/gcc/arm-none-eabi/4.8.2/../../../arm-none-eabi/lib/armv7-ar/thumb/softfp/libc.a(lib_a-strchr.o)
 .data          0x0000000000000000        0x0 /usr/lib/gcc/arm-none-eabi/4.8.2/../../../arm-none-eabi/lib/armv7-ar/thumb/softfp/libc.a(lib_a-strchr.o)
 .bss           0x0000000000000000        0x0 /usr/lib/gcc/arm-none-eabi/4.8.2/../../../arm-none-eabi/lib/armv7-ar/thumb/softfp/libc.a(lib_a-strchr.o)
 .data          0x0000000000000000        0x0 /usr/lib/gcc/arm-none-eabi/4.8.2/../../../arm-none-eabi/lib/armv7-ar/thumb/softfp/libc.a(lib_a-strcmp.o)
 .bss           0x0000000000000000        0x0 /usr/lib/gcc/arm-none-eabi/4.8.2/../../../arm-none-eabi/lib/armv7-ar/thumb/softfp/libc.a(lib_a-strcmp.o)
 .text          0x0000000000000000        0x0 /usr/lib/gcc/arm-none-eabi/4.8.2/../../../arm-none-eabi/lib/armv7-ar/thumb/softfp/libc.a(lib_a-strdup_r.o)
 .data          0x0000000000000000        0x0 /usr/lib/gcc/arm-none-eabi/4.8.2/../../../arm-none-eabi/lib/armv7-ar/thumb/softfp/libc.a(lib_a-strdup_r.o)
 .bss           0x0000000000000000        0x0 /usr/lib/gcc/arm-none-eabi/4.8.2/../../../arm-none-eabi/lib/armv7-ar/thumb/softfp/libc.a(lib_a-strdup_r.o)
 .text          0x0000000000000000        0x0 /usr/lib/gcc/arm-none-eabi/4.8.2/../../../arm-none-eabi/lib/armv7-ar/thumb/softfp/libc.a(lib_a-strlen.o)
 .data          0x0000000000000000        0x0 /usr/lib/gcc/arm-none-eabi/4.8.2/../../../arm-none-eabi/lib/armv7-ar/thumb/softfp/libc.a(lib_a-strlen.o)
 .bss           0x0000000000000000        0x0 /usr/lib/gcc/arm-none-eabi/4.8.2/../../../arm-none-eabi/lib/armv7-ar/thumb/softfp/libc.a(lib_a-strlen.o)
 .text          0x0000000000000000        0x0 /usr/lib/gcc/arm-none-eabi/4.8.2/../../../arm-none-eabi/lib/armv7-ar/thumb/softfp/libc.a(lib_a-strncmp.o)
 .data          0x0000000000000000        0x0 /usr/lib/gcc/arm-none-eabi/4.8.2/../../../arm-none-eabi/lib/armv7-ar/thumb/softfp/libc.a(lib_a-strncmp.o)
 .bss           0x0000000000000000        0x0 /usr/lib/gcc/arm-none-eabi/4.8.2/../../../arm-none-eabi/lib/armv7-ar/thumb/softfp/libc.a(lib_a-strncmp.o)
 .text          0x0000000000000000        0x0 /usr/lib/gcc/arm-none-eabi/4.8.2/../../../arm-none-eabi/lib/armv7-ar/thumb/softfp/libc.a(lib_a-strncpy.o)
 .data          0x0000000000000000        0x0 /usr/lib/gcc/arm-none-eabi/4.8.2/../../../arm-none-eabi/lib/armv7-ar/thumb/softfp/libc.a(lib_a-strncpy.o)
 .bss           0x0000000000000000        0x0 /usr/lib/gcc/arm-none-eabi/4.8.2/../../../arm-none-eabi/lib/armv7-ar/thumb/softfp/libc.a(lib_a-strncpy.o)
 .text          0x0000000000000000        0x0 /usr/lib/gcc/arm-none-eabi/4.8.2/../../../arm-none-eabi/lib/armv7-ar/thumb/softfp/libc.a(lib_a-strtol.o)
 .data          0x0000000000000000        0x0 /usr/lib/gcc/arm-none-eabi/4.8.2/../../../arm-none-eabi/lib/armv7-ar/thumb/softfp/libc.a(lib_a-strtol.o)
 .bss           0x0000000000000000        0x0 /usr/lib/gcc/arm-none-eabi/4.8.2/../../../arm-none-eabi/lib/armv7-ar/thumb/softfp/libc.a(lib_a-strtol.o)
 .text          0x0000000000000000        0x0 /usr/lib/gcc/arm-none-eabi/4.8.2/../../../arm-none-eabi/lib/armv7-ar/thumb/softfp/libc.a(lib_a-tzset.o)
 .data          0x0000000000000000        0x0 /usr/lib/gcc/arm-none-eabi/4.8.2/../../../arm-none-eabi/lib/armv7-ar/thumb/softfp/libc.a(lib_a-tzset.o)
 .bss           0x0000000000000000        0x0 /usr/lib/gcc/arm-none-eabi/4.8.2/../../../arm-none-eabi/lib/armv7-ar/thumb/softfp/libc.a(lib_a-tzset.o)
 .text          0x0000000000000000        0x0 /usr/lib/gcc/arm-none-eabi/4.8.2/../../../arm-none-eabi/lib/armv7-ar/thumb/softfp/libc.a(lib_a-tzset_r.o)
 .data          0x0000000000000000        0x0 /usr/lib/gcc/arm-none-eabi/4.8.2/../../../arm-none-eabi/lib/armv7-ar/thumb/softfp/libc.a(lib_a-tzset_r.o)
 .bss           0x0000000000000000        0x0 /usr/lib/gcc/arm-none-eabi/4.8.2/../../../arm-none-eabi/lib/armv7-ar/thumb/softfp/libc.a(lib_a-tzset_r.o)
 .text          0x0000000000000000        0x0 /usr/lib/gcc/arm-none-eabi/4.8.2/../../../arm-none-eabi/lib/armv7-ar/thumb/softfp/libc.a(lib_a-tzvars.o)
 .data          0x0000000000000000        0x0 /usr/lib/gcc/arm-none-eabi/4.8.2/../../../arm-none-eabi/lib/armv7-ar/thumb/softfp/libc.a(lib_a-tzvars.o)
 .bss           0x0000000000000000        0x0 /usr/lib/gcc/arm-none-eabi/4.8.2/../../../arm-none-eabi/lib/armv7-ar/thumb/softfp/libc.a(lib_a-tzvars.o)
 .text          0x0000000000000000        0x0 /usr/lib/gcc/arm-none-eabi/4.8.2/../../../arm-none-eabi/lib/armv7-ar/thumb/softfp/libc.a(lib_a-__atexit.o)
 .data          0x0000000000000000        0x0 /usr/lib/gcc/arm-none-eabi/4.8.2/../../../arm-none-eabi/lib/armv7-ar/thumb/softfp/libc.a(lib_a-__atexit.o)
 .bss           0x0000000000000000        0x0 /usr/lib/gcc/arm-none-eabi/4.8.2/../../../arm-none-eabi/lib/armv7-ar/thumb/softfp/libc.a(lib_a-__atexit.o)
 .text.__register_exitproc
                0x0000000000000000       0xb4 /usr/lib/gcc/arm-none-eabi/4.8.2/../../../arm-none-eabi/lib/armv7-ar/thumb/softfp/libc.a(lib_a-__atexit.o)
 .debug_info    0x0000000000000000      0x934 /usr/lib/gcc/arm-none-eabi/4.8.2/../../../arm-none-eabi/lib/armv7-ar/thumb/softfp/libc.a(lib_a-__atexit.o)
 .debug_abbrev  0x0000000000000000      0x20f /usr/lib/gcc/arm-none-eabi/4.8.2/../../../arm-none-eabi/lib/armv7-ar/thumb/softfp/libc.a(lib_a-__atexit.o)
 .debug_loc     0x0000000000000000      0x14d /usr/lib/gcc/arm-none-eabi/4.8.2/../../../arm-none-eabi/lib/armv7-ar/thumb/softfp/libc.a(lib_a-__atexit.o)
 .debug_aranges
                0x0000000000000000       0x20 /usr/lib/gcc/arm-none-eabi/4.8.2/../../../arm-none-eabi/lib/armv7-ar/thumb/softfp/libc.a(lib_a-__atexit.o)
 .debug_ranges  0x0000000000000000       0x10 /usr/lib/gcc/arm-none-eabi/4.8.2/../../../arm-none-eabi/lib/armv7-ar/thumb/softfp/libc.a(lib_a-__atexit.o)
 .debug_line    0x0000000000000000      0x161 /usr/lib/gcc/arm-none-eabi/4.8.2/../../../arm-none-eabi/lib/armv7-ar/thumb/softfp/libc.a(lib_a-__atexit.o)
 .debug_str     0x0000000000000000      0x60b /usr/lib/gcc/arm-none-eabi/4.8.2/../../../arm-none-eabi/lib/armv7-ar/thumb/softfp/libc.a(lib_a-__atexit.o)
 .comment       0x0000000000000000       0x20 /usr/lib/gcc/arm-none-eabi/4.8.2/../../../arm-none-eabi/lib/armv7-ar/thumb/softfp/libc.a(lib_a-__atexit.o)
 .ARM.attributes
                0x0000000000000000       0x2d /usr/lib/gcc/arm-none-eabi/4.8.2/../../../arm-none-eabi/lib/armv7-ar/thumb/softfp/libc.a(lib_a-__atexit.o)
 .debug_frame   0x0000000000000000       0x30 /usr/lib/gcc/arm-none-eabi/4.8.2/../../../arm-none-eabi/lib/armv7-ar/thumb/softfp/libc.a(lib_a-__atexit.o)
 .text          0x0000000000000000        0x0 /usr/lib/gcc/arm-none-eabi/4.8.2/../../../arm-none-eabi/lib/armv7-ar/thumb/softfp/libc.a(lib_a-__call_atexit.o)
 .data          0x0000000000000000        0x0 /usr/lib/gcc/arm-none-eabi/4.8.2/../../../arm-none-eabi/lib/armv7-ar/thumb/softfp/libc.a(lib_a-__call_atexit.o)
 .bss           0x0000000000000000        0x0 /usr/lib/gcc/arm-none-eabi/4.8.2/../../../arm-none-eabi/lib/armv7-ar/thumb/softfp/libc.a(lib_a-__call_atexit.o)
 .text.startup.register_fini
                0x0000000000000000       0x18 /usr/lib/gcc/arm-none-eabi/4.8.2/../../../arm-none-eabi/lib/armv7-ar/thumb/softfp/libc.a(lib_a-__call_atexit.o)
 .init_array.00000
                0x0000000000000000        0x4 /usr/lib/gcc/arm-none-eabi/4.8.2/../../../arm-none-eabi/lib/armv7-ar/thumb/softfp/libc.a(lib_a-__call_atexit.o)
 .text.__call_exitprocs
                0x0000000000000000       0xf8 /usr/lib/gcc/arm-none-eabi/4.8.2/../../../arm-none-eabi/lib/armv7-ar/thumb/softfp/libc.a(lib_a-__call_atexit.o)
 .debug_info    0x0000000000000000      0x9aa /usr/lib/gcc/arm-none-eabi/4.8.2/../../../arm-none-eabi/lib/armv7-ar/thumb/softfp/libc.a(lib_a-__call_atexit.o)
 .debug_abbrev  0x0000000000000000      0x285 /usr/lib/gcc/arm-none-eabi/4.8.2/../../../arm-none-eabi/lib/armv7-ar/thumb/softfp/libc.a(lib_a-__call_atexit.o)
 .debug_loc     0x0000000000000000      0x155 /usr/lib/gcc/arm-none-eabi/4.8.2/../../../arm-none-eabi/lib/armv7-ar/thumb/softfp/libc.a(lib_a-__call_atexit.o)
 .debug_aranges
                0x0000000000000000       0x28 /usr/lib/gcc/arm-none-eabi/4.8.2/../../../arm-none-eabi/lib/armv7-ar/thumb/softfp/libc.a(lib_a-__call_atexit.o)
 .debug_ranges  0x0000000000000000       0x38 /usr/lib/gcc/arm-none-eabi/4.8.2/../../../arm-none-eabi/lib/armv7-ar/thumb/softfp/libc.a(lib_a-__call_atexit.o)
 .debug_line    0x0000000000000000      0x19f /usr/lib/gcc/arm-none-eabi/4.8.2/../../../arm-none-eabi/lib/armv7-ar/thumb/softfp/libc.a(lib_a-__call_atexit.o)
 .debug_str     0x0000000000000000      0x623 /usr/lib/gcc/arm-none-eabi/4.8.2/../../../arm-none-eabi/lib/armv7-ar/thumb/softfp/libc.a(lib_a-__call_atexit.o)
 .comment       0x0000000000000000       0x20 /usr/lib/gcc/arm-none-eabi/4.8.2/../../../arm-none-eabi/lib/armv7-ar/thumb/softfp/libc.a(lib_a-__call_atexit.o)
 .ARM.attributes
                0x0000000000000000       0x2d /usr/lib/gcc/arm-none-eabi/4.8.2/../../../arm-none-eabi/lib/armv7-ar/thumb/softfp/libc.a(lib_a-__call_atexit.o)
 .debug_frame   0x0000000000000000       0x48 /usr/lib/gcc/arm-none-eabi/4.8.2/../../../arm-none-eabi/lib/armv7-ar/thumb/softfp/libc.a(lib_a-__call_atexit.o)
 .text          0x0000000000000000        0x0 /usr/lib/gcc/arm-none-eabi/4.8.2/../../../arm-none-eabi/lib/armv7-ar/thumb/softfp/libc.a(lib_a-ctype_.o)
 .data          0x0000000000000000        0x0 /usr/lib/gcc/arm-none-eabi/4.8.2/../../../arm-none-eabi/lib/armv7-ar/thumb/softfp/libc.a(lib_a-ctype_.o)
 .bss           0x0000000000000000        0x0 /usr/lib/gcc/arm-none-eabi/4.8.2/../../../arm-none-eabi/lib/armv7-ar/thumb/softfp/libc.a(lib_a-ctype_.o)
 .text          0x0000000000000000        0x0 /usr/lib/gcc/arm-none-eabi/4.8.2/../../../arm-none-eabi/lib/armv7-ar/thumb/softfp/libc.a(lib_a-environ.o)
 .data          0x0000000000000000        0x0 /usr/lib/gcc/arm-none-eabi/4.8.2/../../../arm-none-eabi/lib/armv7-ar/thumb/softfp/libc.a(lib_a-environ.o)
 .bss           0x0000000000000000        0x0 /usr/lib/gcc/arm-none-eabi/4.8.2/../../../arm-none-eabi/lib/armv7-ar/thumb/softfp/libc.a(lib_a-environ.o)
 .text          0x0000000000000000        0x0 /usr/lib/gcc/arm-none-eabi/4.8.2/../../../arm-none-eabi/lib/armv7-ar/thumb/softfp/libc.a(lib_a-envlock.o)
 .data          0x0000000000000000        0x0 /usr/lib/gcc/arm-none-eabi/4.8.2/../../../arm-none-eabi/lib/armv7-ar/thumb/softfp/libc.a(lib_a-envlock.o)
 .bss           0x0000000000000000        0x0 /usr/lib/gcc/arm-none-eabi/4.8.2/../../../arm-none-eabi/lib/armv7-ar/thumb/softfp/libc.a(lib_a-envlock.o)
 .text          0x0000000000000000        0x0 /usr/lib/gcc/arm-none-eabi/4.8.2/../../../arm-none-eabi/lib/armv7-ar/thumb/softfp/libc.a(lib_a-errno.o)
 .data          0x0000000000000000        0x0 /usr/lib/gcc/arm-none-eabi/4.8.2/../../../arm-none-eabi/lib/armv7-ar/thumb/softfp/libc.a(lib_a-errno.o)
 .bss           0x0000000000000000        0x0 /usr/lib/gcc/arm-none-eabi/4.8.2/../../../arm-none-eabi/lib/armv7-ar/thumb/softfp/libc.a(lib_a-errno.o)
 .text          0x0000000000000000        0x0 /usr/lib/gcc/arm-none-eabi/4.8.2/../../../arm-none-eabi/lib/armv7-ar/thumb/softfp/libc.a(lib_a-getenv_r.o)
 .data          0x0000000000000000        0x0 /usr/lib/gcc/arm-none-eabi/4.8.2/../../../arm-none-eabi/lib/armv7-ar/thumb/softfp/libc.a(lib_a-getenv_r.o)
 .bss           0x0000000000000000        0x0 /usr/lib/gcc/arm-none-eabi/4.8.2/../../../arm-none-eabi/lib/armv7-ar/thumb/softfp/libc.a(lib_a-getenv_r.o)
 .text          0x0000000000000000        0x0 /usr/lib/gcc/arm-none-eabi/4.8.2/../../../arm-none-eabi/lib/armv7-ar/thumb/softfp/libc.a(lib_a-gettzinfo.o)
 .data          0x0000000000000000        0x0 /usr/lib/gcc/arm-none-eabi/4.8.2/../../../arm-none-eabi/lib/armv7-ar/thumb/softfp/libc.a(lib_a-gettzinfo.o)
 .bss           0x0000000000000000        0x0 /usr/lib/gcc/arm-none-eabi/4.8.2/../../../arm-none-eabi/lib/armv7-ar/thumb/softfp/libc.a(lib_a-gettzinfo.o)
 .text          0x0000000000000000        0x0 /usr/lib/gcc/arm-none-eabi/4.8.2/../../../arm-none-eabi/lib/armv7-ar/thumb/softfp/libc.a(lib_a-malloc.o)
 .data          0x0000000000000000        0x0 /usr/lib/gcc/arm-none-eabi/4.8.2/../../../arm-none-eabi/lib/armv7-ar/thumb/softfp/libc.a(lib_a-malloc.o)
 .bss           0x0000000000000000        0x0 /usr/lib/gcc/arm-none-eabi/4.8.2/../../../arm-none-eabi/lib/armv7-ar/thumb/softfp/libc.a(lib_a-malloc.o)
 .text.malloc   0x0000000000000000       0x10 /usr/lib/gcc/arm-none-eabi/4.8.2/../../../arm-none-eabi/lib/armv7-ar/thumb/softfp/libc.a(lib_a-malloc.o)
 .text          0x0000000000000000        0x0 /usr/lib/gcc/arm-none-eabi/4.8.2/../../../arm-none-eabi/lib/armv7-ar/thumb/softfp/libc.a(lib_a-mktm_r.o)
 .data          0x0000000000000000        0x0 /usr/lib/gcc/arm-none-eabi/4.8.2/../../../arm-none-eabi/lib/armv7-ar/thumb/softfp/libc.a(lib_a-mktm_r.o)
 .bss           0x0000000000000000        0x0 /usr/lib/gcc/arm-none-eabi/4.8.2/../../../arm-none-eabi/lib/armv7-ar/thumb/softfp/libc.a(lib_a-mktm_r.o)
 .text._mktm_r  0x0000000000000000      0x370 /usr/lib/gcc/arm-none-eabi/4.8.2/../../../arm-none-eabi/lib/armv7-ar/thumb/softfp/libc.a(lib_a-mktm_r.o)
 .rodata.year_lengths
                0x0000000000000000        0x8 /usr/lib/gcc/arm-none-eabi/4.8.2/../../../arm-none-eabi/lib/armv7-ar/thumb/softfp/libc.a(lib_a-mktm_r.o)
 .text          0x0000000000000000        0x0 /usr/lib/gcc/arm-none-eabi/4.8.2/../../../arm-none-eabi/lib/armv7-ar/thumb/softfp/libc.a(lib_a-siscanf.o)
 .data          0x0000000000000000        0x0 /usr/lib/gcc/arm-none-eabi/4.8.2/../../../arm-none-eabi/lib/armv7-ar/thumb/softfp/libc.a(lib_a-siscanf.o)
 .bss           0x0000000000000000        0x0 /usr/lib/gcc/arm-none-eabi/4.8.2/../../../arm-none-eabi/lib/armv7-ar/thumb/softfp/libc.a(lib_a-siscanf.o)
 .text._siscanf_r
                0x0000000000000000       0x58 /usr/lib/gcc/arm-none-eabi/4.8.2/../../../arm-none-eabi/lib/armv7-ar/thumb/softfp/libc.a(lib_a-siscanf.o)
 .text          0x0000000000000000        0x0 /usr/lib/gcc/arm-none-eabi/4.8.2/../../../arm-none-eabi/lib/armv7-ar/thumb/softfp/libc.a(lib_a-stdio.o)
 .data          0x0000000000000000        0x0 /usr/lib/gcc/arm-none-eabi/4.8.2/../../../arm-none-eabi/lib/armv7-ar/thumb/softfp/libc.a(lib_a-stdio.o)
 .bss           0x0000000000000000        0x0 /usr/lib/gcc/arm-none-eabi/4.8.2/../../../arm-none-eabi/lib/armv7-ar/thumb/softfp/libc.a(lib_a-stdio.o)
 .text.__sread  0x0000000000000000       0x24 /usr/lib/gcc/arm-none-eabi/4.8.2/../../../arm-none-eabi/lib/armv7-ar/thumb/softfp/libc.a(lib_a-stdio.o)
 .text.__swrite
                0x0000000000000000       0x38 /usr/lib/gcc/arm-none-eabi/4.8.2/../../../arm-none-eabi/lib/armv7-ar/thumb/softfp/libc.a(lib_a-stdio.o)
 .text.__sseek  0x0000000000000000       0x20 /usr/lib/gcc/arm-none-eabi/4.8.2/../../../arm-none-eabi/lib/armv7-ar/thumb/softfp/libc.a(lib_a-stdio.o)
 .text.__sclose
                0x0000000000000000        0x8 /usr/lib/gcc/arm-none-eabi/4.8.2/../../../arm-none-eabi/lib/armv7-ar/thumb/softfp/libc.a(lib_a-stdio.o)
 .text          0x0000000000000000        0x0 /usr/lib/gcc/arm-none-eabi/4.8.2/../../../arm-none-eabi/lib/armv7-ar/thumb/softfp/libc.a(lib_a-strcpy.o)
 .data          0x0000000000000000        0x0 /usr/lib/gcc/arm-none-eabi/4.8.2/../../../arm-none-eabi/lib/armv7-ar/thumb/softfp/libc.a(lib_a-strcpy.o)
 .bss           0x0000000000000000        0x0 /usr/lib/gcc/arm-none-eabi/4.8.2/../../../arm-none-eabi/lib/armv7-ar/thumb/softfp/libc.a(lib_a-strcpy.o)
 .text          0x0000000000000000        0x0 /usr/lib/gcc/arm-none-eabi/4.8.2/../../../arm-none-eabi/lib/armv7-ar/thumb/softfp/libc.a(lib_a-strtoul.o)
 .data          0x0000000000000000        0x0 /usr/lib/gcc/arm-none-eabi/4.8.2/../../../arm-none-eabi/lib/armv7-ar/thumb/softfp/libc.a(lib_a-strtoul.o)
 .bss           0x0000000000000000        0x0 /usr/lib/gcc/arm-none-eabi/4.8.2/../../../arm-none-eabi/lib/armv7-ar/thumb/softfp/libc.a(lib_a-strtoul.o)
 .text          0x0000000000000000        0x0 /usr/lib/gcc/arm-none-eabi/4.8.2/../../../arm-none-eabi/lib/armv7-ar/thumb/softfp/libc.a(lib_a-svfiscanf.o)
 .data          0x0000000000000000        0x0 /usr/lib/gcc/arm-none-eabi/4.8.2/../../../arm-none-eabi/lib/armv7-ar/thumb/softfp/libc.a(lib_a-svfiscanf.o)
 .bss           0x0000000000000000        0x0 /usr/lib/gcc/arm-none-eabi/4.8.2/../../../arm-none-eabi/lib/armv7-ar/thumb/softfp/libc.a(lib_a-svfiscanf.o)
 .text          0x0000000000000000        0x0 /usr/lib/gcc/arm-none-eabi/4.8.2/../../../arm-none-eabi/lib/armv7-ar/thumb/softfp/libc.a(lib_a-tzlock.o)
 .data          0x0000000000000000        0x0 /usr/lib/gcc/arm-none-eabi/4.8.2/../../../arm-none-eabi/lib/armv7-ar/thumb/softfp/libc.a(lib_a-tzlock.o)
 .bss           0x0000000000000000        0x0 /usr/lib/gcc/arm-none-eabi/4.8.2/../../../arm-none-eabi/lib/armv7-ar/thumb/softfp/libc.a(lib_a-tzlock.o)
 .text          0x0000000000000000        0x0 /usr/lib/gcc/arm-none-eabi/4.8.2/../../../arm-none-eabi/lib/armv7-ar/thumb/softfp/libc.a(lib_a-ungetc.o)
 .data          0x0000000000000000        0x0 /usr/lib/gcc/arm-none-eabi/4.8.2/../../../arm-none-eabi/lib/armv7-ar/thumb/softfp/libc.a(lib_a-ungetc.o)
 .bss           0x0000000000000000        0x0 /usr/lib/gcc/arm-none-eabi/4.8.2/../../../arm-none-eabi/lib/armv7-ar/thumb/softfp/libc.a(lib_a-ungetc.o)
 .text._ungetc_r
                0x0000000000000000       0xd8 /usr/lib/gcc/arm-none-eabi/4.8.2/../../../arm-none-eabi/lib/armv7-ar/thumb/softfp/libc.a(lib_a-ungetc.o)
 .text.ungetc   0x0000000000000000       0x14 /usr/lib/gcc/arm-none-eabi/4.8.2/../../../arm-none-eabi/lib/armv7-ar/thumb/softfp/libc.a(lib_a-ungetc.o)
 .text          0x0000000000000000        0x0 /usr/lib/gcc/arm-none-eabi/4.8.2/../../../arm-none-eabi/lib/armv7-ar/thumb/softfp/libc.a(lib_a-fflush.o)
 .data          0x0000000000000000        0x0 /usr/lib/gcc/arm-none-eabi/4.8.2/../../../arm-none-eabi/lib/armv7-ar/thumb/softfp/libc.a(lib_a-fflush.o)
 .bss           0x0000000000000000        0x0 /usr/lib/gcc/arm-none-eabi/4.8.2/../../../arm-none-eabi/lib/armv7-ar/thumb/softfp/libc.a(lib_a-fflush.o)
 .text.__sflush_r
                0x0000000000000000      0x14c /usr/lib/gcc/arm-none-eabi/4.8.2/../../../arm-none-eabi/lib/armv7-ar/thumb/softfp/libc.a(lib_a-fflush.o)
 .text._fflush_r
                0x0000000000000000       0x2c /usr/lib/gcc/arm-none-eabi/4.8.2/../../../arm-none-eabi/lib/armv7-ar/thumb/softfp/libc.a(lib_a-fflush.o)
 .text.fflush   0x0000000000000000       0x28 /usr/lib/gcc/arm-none-eabi/4.8.2/../../../arm-none-eabi/lib/armv7-ar/thumb/softfp/libc.a(lib_a-fflush.o)
 .debug_info    0x0000000000000000      0xaba /usr/lib/gcc/arm-none-eabi/4.8.2/../../../arm-none-eabi/lib/armv7-ar/thumb/softfp/libc.a(lib_a-fflush.o)
 .debug_abbrev  0x0000000000000000      0x28e /usr/lib/gcc/arm-none-eabi/4.8.2/../../../arm-none-eabi/lib/armv7-ar/thumb/softfp/libc.a(lib_a-fflush.o)
 .debug_loc     0x0000000000000000      0x22f /usr/lib/gcc/arm-none-eabi/4.8.2/../../../arm-none-eabi/lib/armv7-ar/thumb/softfp/libc.a(lib_a-fflush.o)
 .debug_aranges
                0x0000000000000000       0x30 /usr/lib/gcc/arm-none-eabi/4.8.2/../../../arm-none-eabi/lib/armv7-ar/thumb/softfp/libc.a(lib_a-fflush.o)
 .debug_ranges  0x0000000000000000       0x58 /usr/lib/gcc/arm-none-eabi/4.8.2/../../../arm-none-eabi/lib/armv7-ar/thumb/softfp/libc.a(lib_a-fflush.o)
 .debug_line    0x0000000000000000      0x221 /usr/lib/gcc/arm-none-eabi/4.8.2/../../../arm-none-eabi/lib/armv7-ar/thumb/softfp/libc.a(lib_a-fflush.o)
 .debug_str     0x0000000000000000      0x623 /usr/lib/gcc/arm-none-eabi/4.8.2/../../../arm-none-eabi/lib/armv7-ar/thumb/softfp/libc.a(lib_a-fflush.o)
 .comment       0x0000000000000000       0x20 /usr/lib/gcc/arm-none-eabi/4.8.2/../../../arm-none-eabi/lib/armv7-ar/thumb/softfp/libc.a(lib_a-fflush.o)
 .ARM.attributes
                0x0000000000000000       0x2d /usr/lib/gcc/arm-none-eabi/4.8.2/../../../arm-none-eabi/lib/armv7-ar/thumb/softfp/libc.a(lib_a-fflush.o)
 .debug_frame   0x0000000000000000       0x5c /usr/lib/gcc/arm-none-eabi/4.8.2/../../../arm-none-eabi/lib/armv7-ar/thumb/softfp/libc.a(lib_a-fflush.o)
 .text          0x0000000000000000        0x0 /usr/lib/gcc/arm-none-eabi/4.8.2/../../../arm-none-eabi/lib/armv7-ar/thumb/softfp/libc.a(lib_a-findfp.o)
 .data          0x0000000000000000        0x0 /usr/lib/gcc/arm-none-eabi/4.8.2/../../../arm-none-eabi/lib/armv7-ar/thumb/softfp/libc.a(lib_a-findfp.o)
 .bss           0x0000000000000000        0x0 /usr/lib/gcc/arm-none-eabi/4.8.2/../../../arm-none-eabi/lib/armv7-ar/thumb/softfp/libc.a(lib_a-findfp.o)
 .text.__fp_lock
                0x0000000000000000        0x4 /usr/lib/gcc/arm-none-eabi/4.8.2/../../../arm-none-eabi/lib/armv7-ar/thumb/softfp/libc.a(lib_a-findfp.o)
 .text.__fp_unlock
                0x0000000000000000        0x4 /usr/lib/gcc/arm-none-eabi/4.8.2/../../../arm-none-eabi/lib/armv7-ar/thumb/softfp/libc.a(lib_a-findfp.o)
 .text._cleanup_r
                0x0000000000000000        0xc /usr/lib/gcc/arm-none-eabi/4.8.2/../../../arm-none-eabi/lib/armv7-ar/thumb/softfp/libc.a(lib_a-findfp.o)
 .text.__sfmoreglue
                0x0000000000000000       0x30 /usr/lib/gcc/arm-none-eabi/4.8.2/../../../arm-none-eabi/lib/armv7-ar/thumb/softfp/libc.a(lib_a-findfp.o)
 .text._cleanup
                0x0000000000000000       0x18 /usr/lib/gcc/arm-none-eabi/4.8.2/../../../arm-none-eabi/lib/armv7-ar/thumb/softfp/libc.a(lib_a-findfp.o)
 .text.__sinit  0x0000000000000000      0x104 /usr/lib/gcc/arm-none-eabi/4.8.2/../../../arm-none-eabi/lib/armv7-ar/thumb/softfp/libc.a(lib_a-findfp.o)
 .text.__sfp    0x0000000000000000       0x8c /usr/lib/gcc/arm-none-eabi/4.8.2/../../../arm-none-eabi/lib/armv7-ar/thumb/softfp/libc.a(lib_a-findfp.o)
 .text.__sfp_lock_acquire
                0x0000000000000000        0x4 /usr/lib/gcc/arm-none-eabi/4.8.2/../../../arm-none-eabi/lib/armv7-ar/thumb/softfp/libc.a(lib_a-findfp.o)
 .text.__sfp_lock_release
                0x0000000000000000        0x4 /usr/lib/gcc/arm-none-eabi/4.8.2/../../../arm-none-eabi/lib/armv7-ar/thumb/softfp/libc.a(lib_a-findfp.o)
 .text.__sinit_lock_acquire
                0x0000000000000000        0x4 /usr/lib/gcc/arm-none-eabi/4.8.2/../../../arm-none-eabi/lib/armv7-ar/thumb/softfp/libc.a(lib_a-findfp.o)
 .text.__sinit_lock_release
                0x0000000000000000        0x4 /usr/lib/gcc/arm-none-eabi/4.8.2/../../../arm-none-eabi/lib/armv7-ar/thumb/softfp/libc.a(lib_a-findfp.o)
 .text.__fp_lock_all
                0x0000000000000000       0x18 /usr/lib/gcc/arm-none-eabi/4.8.2/../../../arm-none-eabi/lib/armv7-ar/thumb/softfp/libc.a(lib_a-findfp.o)
 .text.__fp_unlock_all
                0x0000000000000000       0x18 /usr/lib/gcc/arm-none-eabi/4.8.2/../../../arm-none-eabi/lib/armv7-ar/thumb/softfp/libc.a(lib_a-findfp.o)
 .debug_info    0x0000000000000000      0xd35 /usr/lib/gcc/arm-none-eabi/4.8.2/../../../arm-none-eabi/lib/armv7-ar/thumb/softfp/libc.a(lib_a-findfp.o)
 .debug_abbrev  0x0000000000000000      0x351 /usr/lib/gcc/arm-none-eabi/4.8.2/../../../arm-none-eabi/lib/armv7-ar/thumb/softfp/libc.a(lib_a-findfp.o)
 .debug_loc     0x0000000000000000      0x2c0 /usr/lib/gcc/arm-none-eabi/4.8.2/../../../arm-none-eabi/lib/armv7-ar/thumb/softfp/libc.a(lib_a-findfp.o)
 .debug_aranges
                0x0000000000000000       0x80 /usr/lib/gcc/arm-none-eabi/4.8.2/../../../arm-none-eabi/lib/armv7-ar/thumb/softfp/libc.a(lib_a-findfp.o)
 .debug_ranges  0x0000000000000000      0x148 /usr/lib/gcc/arm-none-eabi/4.8.2/../../../arm-none-eabi/lib/armv7-ar/thumb/softfp/libc.a(lib_a-findfp.o)
 .debug_line    0x0000000000000000      0x314 /usr/lib/gcc/arm-none-eabi/4.8.2/../../../arm-none-eabi/lib/armv7-ar/thumb/softfp/libc.a(lib_a-findfp.o)
 .debug_str     0x0000000000000000      0x6d0 /usr/lib/gcc/arm-none-eabi/4.8.2/../../../arm-none-eabi/lib/armv7-ar/thumb/softfp/libc.a(lib_a-findfp.o)
 .comment       0x0000000000000000       0x20 /usr/lib/gcc/arm-none-eabi/4.8.2/../../../arm-none-eabi/lib/armv7-ar/thumb/softfp/libc.a(lib_a-findfp.o)
 .ARM.attributes
                0x0000000000000000       0x2d /usr/lib/gcc/arm-none-eabi/4.8.2/../../../arm-none-eabi/lib/armv7-ar/thumb/softfp/libc.a(lib_a-findfp.o)
 .debug_frame   0x0000000000000000      0x110 /usr/lib/gcc/arm-none-eabi/4.8.2/../../../arm-none-eabi/lib/armv7-ar/thumb/softfp/libc.a(lib_a-findfp.o)
 .text          0x0000000000000000        0x0 /usr/lib/gcc/arm-none-eabi/4.8.2/../../../arm-none-eabi/lib/armv7-ar/thumb/softfp/libc.a(lib_a-fwalk.o)
 .data          0x0000000000000000        0x0 /usr/lib/gcc/arm-none-eabi/4.8.2/../../../arm-none-eabi/lib/armv7-ar/thumb/softfp/libc.a(lib_a-fwalk.o)
 .bss           0x0000000000000000        0x0 /usr/lib/gcc/arm-none-eabi/4.8.2/../../../arm-none-eabi/lib/armv7-ar/thumb/softfp/libc.a(lib_a-fwalk.o)
 .text._fwalk   0x0000000000000000       0x48 /usr/lib/gcc/arm-none-eabi/4.8.2/../../../arm-none-eabi/lib/armv7-ar/thumb/softfp/libc.a(lib_a-fwalk.o)
 .text._fwalk_reent
                0x0000000000000000       0x4c /usr/lib/gcc/arm-none-eabi/4.8.2/../../../arm-none-eabi/lib/armv7-ar/thumb/softfp/libc.a(lib_a-fwalk.o)
 .debug_info    0x0000000000000000      0x99c /usr/lib/gcc/arm-none-eabi/4.8.2/../../../arm-none-eabi/lib/armv7-ar/thumb/softfp/libc.a(lib_a-fwalk.o)
 .debug_abbrev  0x0000000000000000      0x1d1 /usr/lib/gcc/arm-none-eabi/4.8.2/../../../arm-none-eabi/lib/armv7-ar/thumb/softfp/libc.a(lib_a-fwalk.o)
 .debug_loc     0x0000000000000000      0x1e3 /usr/lib/gcc/arm-none-eabi/4.8.2/../../../arm-none-eabi/lib/armv7-ar/thumb/softfp/libc.a(lib_a-fwalk.o)
 .debug_aranges
                0x0000000000000000       0x28 /usr/lib/gcc/arm-none-eabi/4.8.2/../../../arm-none-eabi/lib/armv7-ar/thumb/softfp/libc.a(lib_a-fwalk.o)
 .debug_ranges  0x0000000000000000       0x18 /usr/lib/gcc/arm-none-eabi/4.8.2/../../../arm-none-eabi/lib/armv7-ar/thumb/softfp/libc.a(lib_a-fwalk.o)
 .debug_line    0x0000000000000000      0x18d /usr/lib/gcc/arm-none-eabi/4.8.2/../../../arm-none-eabi/lib/armv7-ar/thumb/softfp/libc.a(lib_a-fwalk.o)
 .debug_str     0x0000000000000000      0x5c8 /usr/lib/gcc/arm-none-eabi/4.8.2/../../../arm-none-eabi/lib/armv7-ar/thumb/softfp/libc.a(lib_a-fwalk.o)
 .comment       0x0000000000000000       0x20 /usr/lib/gcc/arm-none-eabi/4.8.2/../../../arm-none-eabi/lib/armv7-ar/thumb/softfp/libc.a(lib_a-fwalk.o)
 .ARM.attributes
                0x0000000000000000       0x2d /usr/lib/gcc/arm-none-eabi/4.8.2/../../../arm-none-eabi/lib/armv7-ar/thumb/softfp/libc.a(lib_a-fwalk.o)
 .debug_frame   0x0000000000000000       0x54 /usr/lib/gcc/arm-none-eabi/4.8.2/../../../arm-none-eabi/lib/armv7-ar/thumb/softfp/libc.a(lib_a-fwalk.o)
 .text          0x0000000000000000        0x0 /usr/lib/gcc/arm-none-eabi/4.8.2/../../../arm-none-eabi/lib/armv7-ar/thumb/softfp/libc.a(lib_a-iswspace.o)
 .data          0x0000000000000000        0x0 /usr/lib/gcc/arm-none-eabi/4.8.2/../../../arm-none-eabi/lib/armv7-ar/thumb/softfp/libc.a(lib_a-iswspace.o)
 .bss           0x0000000000000000        0x0 /usr/lib/gcc/arm-none-eabi/4.8.2/../../../arm-none-eabi/lib/armv7-ar/thumb/softfp/libc.a(lib_a-iswspace.o)
 .text          0x0000000000000000        0x0 /usr/lib/gcc/arm-none-eabi/4.8.2/../../../arm-none-eabi/lib/armv7-ar/thumb/softfp/libc.a(lib_a-locale.o)
 .data          0x0000000000000000        0x0 /usr/lib/gcc/arm-none-eabi/4.8.2/../../../arm-none-eabi/lib/armv7-ar/thumb/softfp/libc.a(lib_a-locale.o)
 .bss           0x0000000000000000        0x0 /usr/lib/gcc/arm-none-eabi/4.8.2/../../../arm-none-eabi/lib/armv7-ar/thumb/softfp/libc.a(lib_a-locale.o)
 .text._setlocale_r
                0x0000000000000000       0x54 /usr/lib/gcc/arm-none-eabi/4.8.2/../../../arm-none-eabi/lib/armv7-ar/thumb/softfp/libc.a(lib_a-locale.o)
 .text.__locale_msgcharset
                0x0000000000000000        0xc /usr/lib/gcc/arm-none-eabi/4.8.2/../../../arm-none-eabi/lib/armv7-ar/thumb/softfp/libc.a(lib_a-locale.o)
 .text.__locale_cjk_lang
                0x0000000000000000        0x4 /usr/lib/gcc/arm-none-eabi/4.8.2/../../../arm-none-eabi/lib/armv7-ar/thumb/softfp/libc.a(lib_a-locale.o)
 .text._localeconv_r
                0x0000000000000000        0xc /usr/lib/gcc/arm-none-eabi/4.8.2/../../../arm-none-eabi/lib/armv7-ar/thumb/softfp/libc.a(lib_a-locale.o)
 .text.setlocale
                0x0000000000000000       0x14 /usr/lib/gcc/arm-none-eabi/4.8.2/../../../arm-none-eabi/lib/armv7-ar/thumb/softfp/libc.a(lib_a-locale.o)
 .text.localeconv
                0x0000000000000000        0xc /usr/lib/gcc/arm-none-eabi/4.8.2/../../../arm-none-eabi/lib/armv7-ar/thumb/softfp/libc.a(lib_a-locale.o)
 .data.lc_message_charset
                0x0000000000000000       0x20 /usr/lib/gcc/arm-none-eabi/4.8.2/../../../arm-none-eabi/lib/armv7-ar/thumb/softfp/libc.a(lib_a-locale.o)
 .bss._PathLocale
                0x0000000000000000        0x4 /usr/lib/gcc/arm-none-eabi/4.8.2/../../../arm-none-eabi/lib/armv7-ar/thumb/softfp/libc.a(lib_a-locale.o)
 .bss.__nlocale_changed
                0x0000000000000000        0x4 /usr/lib/gcc/arm-none-eabi/4.8.2/../../../arm-none-eabi/lib/armv7-ar/thumb/softfp/libc.a(lib_a-locale.o)
 .bss.__mlocale_changed
                0x0000000000000000        0x4 /usr/lib/gcc/arm-none-eabi/4.8.2/../../../arm-none-eabi/lib/armv7-ar/thumb/softfp/libc.a(lib_a-locale.o)
 .data.lconv    0x0000000000000000       0x38 /usr/lib/gcc/arm-none-eabi/4.8.2/../../../arm-none-eabi/lib/armv7-ar/thumb/softfp/libc.a(lib_a-locale.o)
 .rodata.str1.4
                0x0000000000000000       0x14 /usr/lib/gcc/arm-none-eabi/4.8.2/../../../arm-none-eabi/lib/armv7-ar/thumb/softfp/libc.a(lib_a-locale.o)
 .text          0x0000000000000000        0x0 /usr/lib/gcc/arm-none-eabi/4.8.2/../../../arm-none-eabi/lib/armv7-ar/thumb/softfp/libc.a(lib_a-mbrtowc.o)
 .data          0x0000000000000000        0x0 /usr/lib/gcc/arm-none-eabi/4.8.2/../../../arm-none-eabi/lib/armv7-ar/thumb/softfp/libc.a(lib_a-mbrtowc.o)
 .bss           0x0000000000000000        0x0 /usr/lib/gcc/arm-none-eabi/4.8.2/../../../arm-none-eabi/lib/armv7-ar/thumb/softfp/libc.a(lib_a-mbrtowc.o)
 .text.mbrtowc  0x0000000000000000       0x6c /usr/lib/gcc/arm-none-eabi/4.8.2/../../../arm-none-eabi/lib/armv7-ar/thumb/softfp/libc.a(lib_a-mbrtowc.o)
 .text          0x0000000000000000        0x0 /usr/lib/gcc/arm-none-eabi/4.8.2/../../../arm-none-eabi/lib/armv7-ar/thumb/softfp/libc.a(lib_a-mbtowc_r.o)
 .data          0x0000000000000000        0x0 /usr/lib/gcc/arm-none-eabi/4.8.2/../../../arm-none-eabi/lib/armv7-ar/thumb/softfp/libc.a(lib_a-mbtowc_r.o)
 .bss           0x0000000000000000        0x0 /usr/lib/gcc/arm-none-eabi/4.8.2/../../../arm-none-eabi/lib/armv7-ar/thumb/softfp/libc.a(lib_a-mbtowc_r.o)
 .text._mbtowc_r
                0x0000000000000000       0x34 /usr/lib/gcc/arm-none-eabi/4.8.2/../../../arm-none-eabi/lib/armv7-ar/thumb/softfp/libc.a(lib_a-mbtowc_r.o)
 .text          0x0000000000000000        0x0 /usr/lib/gcc/arm-none-eabi/4.8.2/../../../arm-none-eabi/lib/armv7-ar/thumb/softfp/libc.a(lib_a-sccl.o)
 .data          0x0000000000000000        0x0 /usr/lib/gcc/arm-none-eabi/4.8.2/../../../arm-none-eabi/lib/armv7-ar/thumb/softfp/libc.a(lib_a-sccl.o)
 .bss           0x0000000000000000        0x0 /usr/lib/gcc/arm-none-eabi/4.8.2/../../../arm-none-eabi/lib/armv7-ar/thumb/softfp/libc.a(lib_a-sccl.o)
 .text          0x0000000000000000        0x0 /usr/lib/gcc/arm-none-eabi/4.8.2/../../../arm-none-eabi/lib/armv7-ar/thumb/softfp/libc.a(lib_a-strtoll_r.o)
 .data          0x0000000000000000        0x0 /usr/lib/gcc/arm-none-eabi/4.8.2/../../../arm-none-eabi/lib/armv7-ar/thumb/softfp/libc.a(lib_a-strtoll_r.o)
 .bss           0x0000000000000000        0x0 /usr/lib/gcc/arm-none-eabi/4.8.2/../../../arm-none-eabi/lib/armv7-ar/thumb/softfp/libc.a(lib_a-strtoll_r.o)
 .text          0x0000000000000000        0x0 /usr/lib/gcc/arm-none-eabi/4.8.2/../../../arm-none-eabi/lib/armv7-ar/thumb/softfp/libc.a(lib_a-strtoull_r.o)
 .data          0x0000000000000000        0x0 /usr/lib/gcc/arm-none-eabi/4.8.2/../../../arm-none-eabi/lib/armv7-ar/thumb/softfp/libc.a(lib_a-strtoull_r.o)
 .bss           0x0000000000000000        0x0 /usr/lib/gcc/arm-none-eabi/4.8.2/../../../arm-none-eabi/lib/armv7-ar/thumb/softfp/libc.a(lib_a-strtoull_r.o)
 .text          0x0000000000000000        0x0 /usr/lib/gcc/arm-none-eabi/4.8.2/../../../arm-none-eabi/lib/armv7-ar/thumb/softfp/libc.a(lib_a-fclose.o)
 .data          0x0000000000000000        0x0 /usr/lib/gcc/arm-none-eabi/4.8.2/../../../arm-none-eabi/lib/armv7-ar/thumb/softfp/libc.a(lib_a-fclose.o)
 .bss           0x0000000000000000        0x0 /usr/lib/gcc/arm-none-eabi/4.8.2/../../../arm-none-eabi/lib/armv7-ar/thumb/softfp/libc.a(lib_a-fclose.o)
 .text._fclose_r
                0x0000000000000000       0x84 /usr/lib/gcc/arm-none-eabi/4.8.2/../../../arm-none-eabi/lib/armv7-ar/thumb/softfp/libc.a(lib_a-fclose.o)
 .text.fclose   0x0000000000000000       0x10 /usr/lib/gcc/arm-none-eabi/4.8.2/../../../arm-none-eabi/lib/armv7-ar/thumb/softfp/libc.a(lib_a-fclose.o)
 .debug_info    0x0000000000000000      0x9e5 /usr/lib/gcc/arm-none-eabi/4.8.2/../../../arm-none-eabi/lib/armv7-ar/thumb/softfp/libc.a(lib_a-fclose.o)
 .debug_abbrev  0x0000000000000000      0x273 /usr/lib/gcc/arm-none-eabi/4.8.2/../../../arm-none-eabi/lib/armv7-ar/thumb/softfp/libc.a(lib_a-fclose.o)
 .debug_loc     0x0000000000000000       0xfc /usr/lib/gcc/arm-none-eabi/4.8.2/../../../arm-none-eabi/lib/armv7-ar/thumb/softfp/libc.a(lib_a-fclose.o)
 .debug_aranges
                0x0000000000000000       0x28 /usr/lib/gcc/arm-none-eabi/4.8.2/../../../arm-none-eabi/lib/armv7-ar/thumb/softfp/libc.a(lib_a-fclose.o)
 .debug_ranges  0x0000000000000000       0x30 /usr/lib/gcc/arm-none-eabi/4.8.2/../../../arm-none-eabi/lib/armv7-ar/thumb/softfp/libc.a(lib_a-fclose.o)
 .debug_line    0x0000000000000000      0x193 /usr/lib/gcc/arm-none-eabi/4.8.2/../../../arm-none-eabi/lib/armv7-ar/thumb/softfp/libc.a(lib_a-fclose.o)
 .debug_str     0x0000000000000000      0x60f /usr/lib/gcc/arm-none-eabi/4.8.2/../../../arm-none-eabi/lib/armv7-ar/thumb/softfp/libc.a(lib_a-fclose.o)
 .comment       0x0000000000000000       0x20 /usr/lib/gcc/arm-none-eabi/4.8.2/../../../arm-none-eabi/lib/armv7-ar/thumb/softfp/libc.a(lib_a-fclose.o)
 .ARM.attributes
                0x0000000000000000       0x2d /usr/lib/gcc/arm-none-eabi/4.8.2/../../../arm-none-eabi/lib/armv7-ar/thumb/softfp/libc.a(lib_a-fclose.o)
 .debug_frame   0x0000000000000000       0x3c /usr/lib/gcc/arm-none-eabi/4.8.2/../../../arm-none-eabi/lib/armv7-ar/thumb/softfp/libc.a(lib_a-fclose.o)
 .data          0x0000000000000000        0x0 /usr/lib/gcc/arm-none-eabi/4.8.2/armv7-ar/thumb/softfp/libgcc.a(_udivsi3.o)
 .bss           0x0000000000000000        0x0 /usr/lib/gcc/arm-none-eabi/4.8.2/armv7-ar/thumb/softfp/libgcc.a(_udivsi3.o)
 .data          0x0000000000000000        0x0 /usr/lib/gcc/arm-none-eabi/4.8.2/armv7-ar/thumb/softfp/libgcc.a(_divsi3.o)
 .bss           0x0000000000000000        0x0 /usr/lib/gcc/arm-none-eabi/4.8.2/armv7-ar/thumb/softfp/libgcc.a(_divsi3.o)
 .data          0x0000000000000000        0x0 /usr/lib/gcc/arm-none-eabi/4.8.2/armv7-ar/thumb/softfp/libgcc.a(_dvmd_tls.o)
 .bss           0x0000000000000000        0x0 /usr/lib/gcc/arm-none-eabi/4.8.2/armv7-ar/thumb/softfp/libgcc.a(_dvmd_tls.o)
 .data          0x0000000000000000        0x0 /usr/lib/gcc/arm-none-eabi/4.8.2/armv7-ar/thumb/softfp/libgcc.a(_aeabi_uldivmod.o)
 .bss           0x0000000000000000        0x0 /usr/lib/gcc/arm-none-eabi/4.8.2/armv7-ar/thumb/softfp/libgcc.a(_aeabi_uldivmod.o)
 .data          0x0000000000000000        0x0 /usr/lib/gcc/arm-none-eabi/4.8.2/armv7-ar/thumb/softfp/libgcc.a(bpabi.o)
 .bss           0x0000000000000000        0x0 /usr/lib/gcc/arm-none-eabi/4.8.2/armv7-ar/thumb/softfp/libgcc.a(bpabi.o)
 .data          0x0000000000000000        0x0 /usr/lib/gcc/arm-none-eabi/4.8.2/armv7-ar/thumb/softfp/libgcc.a(_divdi3.o)
 .bss           0x0000000000000000        0x0 /usr/lib/gcc/arm-none-eabi/4.8.2/armv7-ar/thumb/softfp/libgcc.a(_divdi3.o)
 .ARM.extab     0x0000000000000000        0x0 /usr/lib/gcc/arm-none-eabi/4.8.2/armv7-ar/thumb/softfp/libgcc.a(_divdi3.o)
 .data          0x0000000000000000        0x0 /usr/lib/gcc/arm-none-eabi/4.8.2/armv7-ar/thumb/softfp/libgcc.a(_udivdi3.o)
 .bss           0x0000000000000000        0x0 /usr/lib/gcc/arm-none-eabi/4.8.2/armv7-ar/thumb/softfp/libgcc.a(_udivdi3.o)
 .ARM.extab     0x0000000000000000        0x0 /usr/lib/gcc/arm-none-eabi/4.8.2/armv7-ar/thumb/softfp/libgcc.a(_udivdi3.o)
 .text          0x0000000000000000        0x0 /usr/lib/gcc/arm-none-eabi/4.8.2/armv7-ar/thumb/softfp/crtend.o
 .data          0x0000000000000000        0x0 /usr/lib/gcc/arm-none-eabi/4.8.2/armv7-ar/thumb/softfp/crtend.o
 .bss           0x0000000000000000        0x0 /usr/lib/gcc/arm-none-eabi/4.8.2/armv7-ar/thumb/softfp/crtend.o
 .eh_frame      0x0000000000000000        0x4 /usr/lib/gcc/arm-none-eabi/4.8.2/armv7-ar/thumb/softfp/crtend.o
 .jcr           0x0000000000000000        0x4 /usr/lib/gcc/arm-none-eabi/4.8.2/armv7-ar/thumb/softfp/crtend.o
 .tm_clone_table
                0x0000000000000000        0x0 /usr/lib/gcc/arm-none-eabi/4.8.2/armv7-ar/thumb/softfp/crtend.o
 .comment       0x0000000000000000       0x20 /usr/lib/gcc/arm-none-eabi/4.8.2/armv7-ar/thumb/softfp/crtend.o
 .ARM.attributes
                0x0000000000000000       0x2d /usr/lib/gcc/arm-none-eabi/4.8.2/armv7-ar/thumb/softfp/crtend.o
 .text          0x0000000000000000        0x0 /usr/lib/gcc/arm-none-eabi/4.8.2/armv7-ar/thumb/softfp/crtn.o
 .data          0x0000000000000000        0x0 /usr/lib/gcc/arm-none-eabi/4.8.2/armv7-ar/thumb/softfp/crtn.o
 .bss           0x0000000000000000        0x0 /usr/lib/gcc/arm-none-eabi/4.8.2/armv7-ar/thumb/softfp/crtn.o
 .init          0x0000000000000000        0x8 /usr/lib/gcc/arm-none-eabi/4.8.2/armv7-ar/thumb/softfp/crtn.o
 .fini          0x0000000000000000        0x8 /usr/lib/gcc/arm-none-eabi/4.8.2/armv7-ar/thumb/softfp/crtn.o
 .ARM.attributes
                0x0000000000000000       0x1b /usr/lib/gcc/arm-none-eabi/4.8.2/armv7-ar/thumb/softfp/crtn.o

Memory Configuration

Name             Origin             Length             Attributes
*default*        0x0000000000000000 0xffffffffffffffff

Linker script and memory map

LOAD /usr/lib/gcc/arm-none-eabi/4.8.2/armv7-ar/thumb/softfp/crti.o
LOAD /usr/lib/gcc/arm-none-eabi/4.8.2/armv7-ar/thumb/softfp/crtbegin.o
LOAD /usr/lib/gcc/arm-none-eabi/4.8.2/../../../arm-none-eabi/lib/armv7-ar/thumb/softfp/crt0.o
LOAD build/bsp/applications/application.o
LOAD build/bsp/applications/startup.o
LOAD build/bsp/drivers/board.o
LOAD build/bsp/drivers/serial.o
LOAD build/kernel/src/clock.o
LOAD build/kernel/src/components.o
LOAD build/kernel/src/device.o
LOAD build/kernel/src/idle.o
LOAD build/kernel/src/ipc.o
LOAD build/kernel/src/irq.o
LOAD build/kernel/src/kservice.o
LOAD build/kernel/src/mem.o
LOAD build/kernel/src/mempool.o
LOAD build/kernel/src/object.o
LOAD build/kernel/src/scheduler.o
LOAD build/kernel/src/thread.o
LOAD build/kernel/src/timer.o
LOAD build/kernel/libcpu/arm/realview-a8-vmm/cpu.o
LOAD build/kernel/libcpu/arm/realview-a8-vmm/gic.o
LOAD build/kernel/libcpu/arm/realview-a8-vmm/interrupt.o
LOAD build/kernel/libcpu/arm/realview-a8-vmm/mmu.o
LOAD build/kernel/libcpu/arm/realview-a8-vmm/pmu.o
LOAD build/kernel/libcpu/arm/realview-a8-vmm/stack.o
LOAD build/kernel/libcpu/arm/realview-a8-vmm/trap.o
LOAD build/kernel/libcpu/arm/realview-a8-vmm/context_gcc.o
LOAD build/kernel/libcpu/arm/realview-a8-vmm/cp15_gcc.o
LOAD build/kernel/libcpu/arm/realview-a8-vmm/start_gcc.o
LOAD build/kernel/libcpu/arm/realview-a8-vmm/vector_gcc.o
LOAD build/kernel/libcpu/arm/common/backtrace.o
LOAD build/kernel/libcpu/arm/common/div0.o
LOAD build/kernel/libcpu/arm/common/showmem.o
LOAD build/kernel/components/finsh/shell.o
LOAD build/kernel/components/finsh/symbol.o
LOAD build/kernel/components/finsh/cmd.o
LOAD build/kernel/components/finsh/msh_cmd.o
LOAD build/kernel/components/finsh/msh.o
LOAD build/kernel/components/finsh/finsh_compiler.o
LOAD build/kernel/components/finsh/finsh_error.o
LOAD build/kernel/components/finsh/finsh_heap.o
LOAD build/kernel/components/finsh/finsh_init.o
LOAD build/kernel/components/finsh/finsh_node.o
LOAD build/kernel/components/finsh/finsh_ops.o
LOAD build/kernel/components/finsh/finsh_parser.o
LOAD build/kernel/components/finsh/finsh_var.o
LOAD build/kernel/components/finsh/finsh_vm.o
LOAD build/kernel/components/finsh/finsh_token.o
LOAD build/kernel/components/pthreads/clock_time.o
LOAD build/kernel/components/pthreads/mqueue.o
LOAD build/kernel/components/pthreads/pthread.o
LOAD build/kernel/components/pthreads/pthread_attr.o
LOAD build/kernel/components/pthreads/pthread_barrier.o
LOAD build/kernel/components/pthreads/pthread_cond.o
LOAD build/kernel/components/pthreads/pthread_mutex.o
LOAD build/kernel/components/pthreads/pthread_rwlock.o
LOAD build/kernel/components/pthreads/pthread_spin.o
LOAD build/kernel/components/pthreads/pthread_tls.o
LOAD build/kernel/components/pthreads/sched.o
LOAD build/kernel/components/pthreads/semaphore.o
LOAD build/kernel/components/libc/newlib/libc.o
LOAD build/kernel/components/libc/newlib/syscalls.o
LOAD build/kernel/components/utilities/logtrace/log_file.o
LOAD build/kernel/components/utilities/logtrace/log_trace.o
LOAD build/kernel/components/drivers/src/completion.o
LOAD build/kernel/components/drivers/src/dataqueue.o
LOAD build/kernel/components/drivers/src/pipe.o
LOAD build/kernel/components/drivers/src/portal.o
LOAD build/kernel/components/drivers/src/ringbuffer.o
LOAD build/kernel/components/drivers/src/workqueue.o
LOAD build/kernel/components/drivers/serial/serial.o
LOAD /usr/lib/gcc/arm-none-eabi/4.8.2/../../../arm-none-eabi/lib/armv7-ar/thumb/softfp/libc.a
LOAD /usr/lib/gcc/arm-none-eabi/4.8.2/../../../arm-none-eabi/lib/armv7-ar/thumb/softfp/libm.a
START GROUP
LOAD /usr/lib/gcc/arm-none-eabi/4.8.2/armv7-ar/thumb/softfp/libgcc.a
LOAD /usr/lib/gcc/arm-none-eabi/4.8.2/../../../arm-none-eabi/lib/armv7-ar/thumb/softfp/libc.a
END GROUP
LOAD /usr/lib/gcc/arm-none-eabi/4.8.2/armv7-ar/thumb/softfp/crtend.o
LOAD /usr/lib/gcc/arm-none-eabi/4.8.2/armv7-ar/thumb/softfp/crtn.o
                0x0000000070000000                . = 0x70000000
                0x0000000070000000                __text_start = .

.text           0x0000000070000000    0x260f4
 *(.vectors)
 .vectors       0x0000000070000000       0x40 build/kernel/libcpu/arm/realview-a8-vmm/vector_gcc.o
                0x0000000070000000                system_vectors
 *(.text)
 .text          0x0000000070000040       0x7c build/bsp/applications/application.o
                0x0000000070000040                init_thread
                0x000000007000005c                rt_application_init
 .text          0x00000000700000bc       0x64 build/bsp/applications/startup.o
                0x00000000700000bc                rtthread_startup
                0x0000000070000104                main
 .text          0x0000000070000120      0x120 build/bsp/drivers/board.o
                0x0000000070000120                rt_hw_timer_ack
                0x0000000070000168                rt_hw_timer_init
                0x0000000070000224                rt_hw_board_init
 .text          0x0000000070000240      0x478 build/bsp/drivers/serial.o
                0x00000000700005b8                uart_isr_test
                0x00000000700005d8                rt_hw_uart_init
 .text          0x00000000700006b8      0x128 build/kernel/src/clock.o
                0x00000000700006b8                rt_system_tick_init
                0x00000000700006cc                rt_tick_get
                0x00000000700006f0                rt_tick_set
                0x0000000070000728                rt_tick_increase
                0x000000007000079c                rt_tick_from_millisecond
 .text          0x00000000700007e0       0xf4 build/kernel/src/components.o
                0x0000000070000834                rt_components_board_init
                0x0000000070000884                rt_components_init
 .text          0x00000000700008d4      0xb3c build/kernel/src/device.o
                0x00000000700008d4                rt_device_register
                0x000000007000095c                rt_device_unregister
                0x0000000070000a0c                rt_device_init_all
                0x0000000070000a28                rt_device_find
                0x0000000070000af4                rt_device_init
                0x0000000070000c18                rt_device_open
                0x0000000070000e70                rt_device_close
                0x0000000070000fac                rt_device_read
                0x00000000700010b8                rt_device_write
                0x00000000700011c4                rt_device_control
                0x00000000700012a8                rt_device_set_rx_indicate
                0x000000007000135c                rt_device_set_tx_complete
 .text          0x0000000070001410      0x2ec build/kernel/src/idle.o
                0x0000000070001470                rt_thread_idle_sethook
                0x00000000700014e0                rt_thread_idle_excute
                0x0000000070001698                rt_thread_idle_init
 .text          0x00000000700016fc     0x4728 build/kernel/src/ipc.o
                0x00000000700019a4                rt_sem_init
                0x0000000070001a90                rt_sem_detach
                0x0000000070001b50                rt_sem_create
                0x0000000070001c74                rt_sem_delete
                0x0000000070001de0                rt_sem_take
                0x0000000070002124                rt_sem_trytake
                0x0000000070002150                rt_sem_release
                0x0000000070002208                rt_sem_control
                0x0000000070002310                rt_mutex_init
                0x000000007000241c                rt_mutex_detach
                0x00000000700024dc                rt_mutex_create
                0x000000007000261c                rt_mutex_delete
                0x0000000070002788                rt_mutex_take
                0x0000000070002b80                rt_mutex_release
                0x0000000070002e94                rt_mutex_control
                0x0000000070002ec4                rt_event_init
                0x0000000070002fac                rt_event_detach
                0x000000007000306c                rt_event_create
                0x0000000070003188                rt_event_delete
                0x00000000700032f4                rt_event_send
                0x000000007000355c                rt_event_recv
                0x0000000070003a08                rt_event_control
                0x0000000070003b04                rt_mb_init
                0x0000000070003c30                rt_mb_detach
                0x0000000070003d00                rt_mb_create
                0x0000000070003e9c                rt_mb_delete
                0x0000000070004028                rt_mb_send_wait
                0x0000000070004498                rt_mb_send
                0x00000000700044cc                rt_mb_recv
                0x0000000070004994                rt_mb_control
                0x0000000070004ab8                rt_mq_init
                0x0000000070004c74                rt_mq_detach
                0x0000000070004d34                rt_mq_create
                0x0000000070004f50                rt_mq_delete
                0x00000000700050cc                rt_mq_send
                0x0000000070005400                rt_mq_urgent
                0x0000000070005718                rt_mq_recv
                0x0000000070005cbc                rt_mq_control
 .text          0x0000000070005e24       0xb8 build/kernel/src/irq.o
                0x0000000070005e24                rt_interrupt_enter
                0x0000000070005e6c                rt_interrupt_leave
                0x0000000070005eb4                rt_interrupt_get_nest
 .text          0x0000000070005edc     0x1c08 build/kernel/src/kservice.o
                0x0000000070005edc                rt_get_errno
                0x0000000070005f40                rt_set_errno
                0x0000000070005fb0                _rt_errno
                0x000000007000600c                rt_memset
                0x0000000070006170                rt_memcpy
                0x000000007000630c                rt_memmove
                0x000000007000640c                rt_memcmp
                0x00000000700064b0                rt_strstr
                0x000000007000655c                rt_strcasecmp
                0x0000000070006618                rt_strncpy
                0x00000000700066d8                rt_strncmp
                0x0000000070006768                rt_strcmp
                0x00000000700067e8                rt_strlen
                0x000000007000683c                rt_strdup
                0x00000000700068a0                rt_show_version
                0x0000000070006d80                rt_vsnprintf
                0x0000000070007648                rt_snprintf
                0x0000000070007698                rt_vsprintf
                0x00000000700076d4                rt_sprintf
                0x000000007000771c                rt_console_get_device
                0x0000000070007740                rt_console_set_device
                0x00000000700077d8                rt_hw_console_output
                0x00000000700077f4                rt_kprintf
                0x00000000700078e8                rt_malloc_align
                0x00000000700079b0                rt_free_align
                0x00000000700079e0                __rt_ffs
                0x0000000070007ab8                rt_assert_set_hook
 .text          0x0000000070007ae4     0x15ec build/kernel/src/mem.o
                0x0000000070007ae4                rt_malloc_sethook
                0x0000000070007b10                rt_free_sethook
                0x0000000070007e5c                rt_system_heap_init
                0x00000000700080bc                rt_malloc
                0x0000000070008798                rt_realloc
                0x0000000070008ab8                rt_calloc
                0x0000000070008bc8                rt_free
                0x0000000070008fec                rt_memory_info
                0x0000000070009070                list_mem
 .text          0x00000000700090d0      0x8e4 build/kernel/src/object.o
                0x0000000070009188                rt_object_attach_sethook
                0x00000000700091b4                rt_object_detach_sethook
                0x00000000700091e0                rt_object_trytake_sethook
                0x000000007000920c                rt_object_take_sethook
                0x0000000070009238                rt_object_put_sethook
                0x0000000070009264                rt_system_object_init
                0x0000000070009278                rt_object_get_information
                0x00000000700092b0                rt_object_init
                0x000000007000936c                rt_object_detach
                0x0000000070009450                rt_object_allocate
                0x00000000700095e4                rt_object_delete
                0x0000000070009760                rt_object_is_systemobject
                0x0000000070009824                rt_object_find
 .text          0x00000000700099b4      0x664 build/kernel/src/scheduler.o
                0x0000000070009ae0                rt_scheduler_sethook
                0x0000000070009b0c                rt_system_scheduler_init
                0x0000000070009b90                rt_system_scheduler_start
                0x0000000070009be4                rt_schedule
                0x0000000070009d20                rt_schedule_insert_thread
                0x0000000070009e28                rt_schedule_remove_thread
                0x0000000070009f38                rt_enter_critical
                0x0000000070009f78                rt_exit_critical
                0x0000000070009ff0                rt_critical_level
 .text          0x000000007000a018     0x1120 build/kernel/src/thread.o
                0x000000007000a3f8                rt_thread_init
                0x000000007000a570                rt_thread_self
                0x000000007000a594                rt_thread_startup
                0x000000007000a714                rt_thread_detach
                0x000000007000a81c                rt_thread_create
                0x000000007000a8c8                rt_thread_delete
                0x000000007000a9b8                rt_thread_yield
                0x000000007000aa6c                rt_thread_sleep
                0x000000007000ab84                rt_thread_delay
                0x000000007000abac                rt_thread_control
                0x000000007000ad2c                rt_thread_suspend
                0x000000007000ae20                rt_thread_resume
                0x000000007000af18                rt_thread_timeout
                0x000000007000b06c                rt_thread_find
 .text          0x000000007000b138      0xd98 build/kernel/src/timer.o
                0x000000007000b264                rt_timer_timeout_sethook
                0x000000007000b3f0                rt_timer_init
                0x000000007000b4c4                rt_timer_detach
                0x000000007000b588                rt_timer_create
                0x000000007000b5f4                rt_timer_delete
                0x000000007000b6b8                rt_timer_start
                0x000000007000bacc                rt_timer_stop
                0x000000007000bbe8                rt_timer_control
                0x000000007000bd18                rt_timer_check
                0x000000007000be48                rt_timer_next_timeout_tick
                0x000000007000be68                rt_system_timer_init
                0x000000007000bebc                rt_system_timer_thread_init
 .text          0x000000007000bed0       0xb4 build/kernel/libcpu/arm/realview-a8-vmm/cpu.o
                0x000000007000bed0                rt_hw_cpu_shutdown
 .text          0x000000007000bf84     0x1a94 build/kernel/libcpu/arm/realview-a8-vmm/gic.o
                0x000000007000bf84                arm_gic_get_active_irq
                0x000000007000c090                arm_gic_ack
                0x000000007000c2e8                arm_gic_mask
                0x000000007000c4b4                arm_gic_clear_pending
                0x000000007000c680                arm_gic_clear_active
                0x000000007000c84c                arm_gic_set_cpu
                0x000000007000cab0                arm_gic_umask
                0x000000007000cc7c                arm_gic_dump_type
                0x000000007000cd88                arm_gic_dump
                0x000000007000cfc0                arm_gic_dist_init
                0x000000007000d334                arm_gic_cpu_init
                0x000000007000d444                arm_gic_set_group
                0x000000007000d708                arm_gic_trigger
                0x000000007000d87c                arm_gic_clear_sgi
 .text          0x000000007000da18      0x278 build/kernel/libcpu/arm/realview-a8-vmm/interrupt.o
                0x000000007000da5c                rt_hw_interrupt_init
                0x000000007000daf8                rt_hw_interrupt_mask
                0x000000007000db1c                rt_hw_interrupt_umask
                0x000000007000db40                rt_hw_interrupt_install
                0x000000007000dc40                rt_hw_interrupt_trigger
                0x000000007000dc68                rt_hw_interrupt_clear
 .text          0x000000007000dc90      0x1d8 build/kernel/libcpu/arm/realview-a8-vmm/stack.o
                0x000000007000dc90                rt_hw_stack_init
 .text          0x000000007000de68      0x3e0 build/kernel/libcpu/arm/realview-a8-vmm/trap.o
                0x000000007000de68                rt_hw_show_register
                0x000000007000df70                rt_hw_trap_undef
                0x000000007000dfa4                rt_hw_trap_swi
                0x000000007000dfd8                rt_hw_trap_pabt
                0x000000007000e00c                rt_hw_trap_dabt
                0x000000007000e040                rt_hw_trap_resv
                0x000000007000e074                rt_hw_trap_irq
                0x000000007000e19c                rt_hw_trap_fiq
 .text          0x000000007000e248       0x24 build/kernel/libcpu/arm/realview-a8-vmm/context_gcc.o
                0x000000007000e248                rt_hw_interrupt_disable
                0x000000007000e254                rt_hw_interrupt_enable
                0x000000007000e25c                rt_hw_context_switch_to
 .text          0x000000007000e26c      0x134 build/kernel/libcpu/arm/realview-a8-vmm/cp15_gcc.o
                0x000000007000e26c                rt_cpu_get_smp_id
                0x000000007000e274                rt_cpu_vector_set_base
                0x000000007000e280                rt_hw_cpu_dcache_enable
                0x000000007000e290                rt_hw_cpu_icache_enable
                0x000000007000e2a8                rt_cpu_dcache_clean_flush
                0x000000007000e33c                rt_hw_cpu_dcache_disable
                0x000000007000e358                rt_hw_cpu_icache_disable
                0x000000007000e368                rt_cpu_mmu_disable
                0x000000007000e380                rt_cpu_mmu_enable
                0x000000007000e394                rt_cpu_tlb_set
 .text          0x000000007000e3a0       0xb0 build/kernel/libcpu/arm/realview-a8-vmm/start_gcc.o
                0x000000007000e3a0                _reset
 .text          0x000000007000e450     0x179c build/kernel/components/finsh/shell.o
                0x000000007000e450                finsh_get_prompt
                0x000000007000e5bc                finsh_set_device
                0x000000007000e784                finsh_get_device
                0x000000007000e838                finsh_set_echo
                0x000000007000e904                finsh_get_echo
                0x000000007000ea24                finsh_run_line
                0x000000007000ed84                finsh_thread_entry
                0x000000007000fa48                finsh_system_function_init
                0x000000007000fa88                finsh_system_var_init
                0x000000007000fac8                finsh_system_init
 .text          0x000000007000fbec     0x13dc build/kernel/components/finsh/cmd.o
                0x000000007000fc8c                hello
                0x000000007000fcac                version
                0x000000007000fe74                list_thread
                0x0000000070010044                list_sem
                0x0000000070010168                list_event
                0x000000007001024c                list_mutex
                0x00000000700103b8                list_mailbox
                0x0000000070010504                list_msgqueue
                0x0000000070010644                list_mempool
                0x0000000070010744                list_timer
                0x0000000070010854                list_device
                0x0000000070010874                list
                0x0000000070010b24                list_prefix
 .text          0x0000000070010fc8       0x78 build/kernel/components/finsh/msh_cmd.o
                0x0000000070010fc8                cmd_ps
                0x0000000070010ff0                cmd_time
                0x0000000070011018                cmd_free
 .text          0x0000000070011040      0x988 build/kernel/components/finsh/msh.o
                0x0000000070011040                msh_is_used
                0x00000000700110c8                msh_help
                0x00000000700116e8                msh_exec
                0x0000000070011864                msh_auto_complete
 .text          0x00000000700119c8     0x3b6c build/kernel/components/finsh/finsh_compiler.o
                0x000000007001543c                finsh_compiler_run
 .text          0x0000000070015534       0xbc build/kernel/components/finsh/finsh_error.o
                0x0000000070015534                finsh_error_init
                0x0000000070015560                finsh_error_set
                0x0000000070015598                finsh_errno
                0x00000000700155bc                finsh_error_string
 .text          0x00000000700155f0      0x6cc build/kernel/components/finsh/finsh_heap.o
                0x00000000700155f0                finsh_heap_init
                0x0000000070015664                finsh_heap_allocate
                0x0000000070015794                finsh_heap_free
 .text          0x0000000070015cbc       0xbc build/kernel/components/finsh/finsh_init.o
                0x0000000070015cbc                finsh_init
                0x0000000070015cf4                finsh_stack_bottom
                0x0000000070015d18                finsh_flush
                0x0000000070015d48                finsh_reset
 .text          0x0000000070015d78      0x438 build/kernel/components/finsh/finsh_node.o
                0x0000000070015d78                finsh_node_init
                0x0000000070015da0                finsh_node_allocate
                0x0000000070015e74                finsh_node_new_id
                0x0000000070015fac                finsh_node_new_char
                0x0000000070016004                finsh_node_new_int
                0x0000000070016058                finsh_node_new_long
                0x00000000700160ac                finsh_node_new_string
                0x000000007001615c                finsh_node_new_ptr
 .text          0x00000000700161b0     0x1c28 build/kernel/components/finsh/finsh_ops.o
                0x00000000700161b0                OP_no_op
                0x00000000700161c8                OP_add_byte
                0x0000000070016240                OP_add_word
                0x00000000700162c4                OP_add_dword
                0x0000000070016338                OP_sub_byte
                0x00000000700163b0                OP_sub_word
                0x0000000070016434                OP_sub_dword
                0x00000000700164a8                OP_div_byte
                0x0000000070016524                OP_div_word
                0x00000000700165a8                OP_div_dword
                0x0000000070016620                OP_mod_byte
                0x000000007001669c                OP_mod_word
                0x0000000070016720                OP_mod_dword
                0x0000000070016798                OP_mul_byte
                0x0000000070016810                OP_mul_word
                0x0000000070016894                OP_mul_dword
                0x0000000070016908                OP_and_byte
                0x0000000070016980                OP_and_word
                0x00000000700169f8                OP_and_dword
                0x0000000070016a6c                OP_or_byte
                0x0000000070016ae4                OP_or_word
                0x0000000070016b5c                OP_or_dword
                0x0000000070016bd0                OP_xor_byte
                0x0000000070016c48                OP_xor_word
                0x0000000070016cc0                OP_xor_dword
                0x0000000070016d34                OP_bw_byte
                0x0000000070016d7c                OP_bw_word
                0x0000000070016dc4                OP_bw_dword
                0x0000000070016e08                OP_shl_byte
                0x0000000070016e84                OP_shl_word
                0x0000000070016f04                OP_shl_dword
                0x0000000070016f78                OP_shr_byte
                0x0000000070016ff4                OP_shr_word
                0x0000000070017074                OP_shr_dword
                0x00000000700170e8                OP_ld_byte
                0x0000000070017158                OP_ld_word
                0x00000000700171f0                OP_ld_dword
                0x00000000700172b8                OP_ld_value_byte
                0x0000000070017390                OP_ld_value_byte_stack
                0x00000000700173e0                OP_ld_value_word
                0x00000000700174b8                OP_ld_value_word_stack
                0x0000000070017508                OP_ld_value_dword
                0x00000000700175e0                OP_ld_value_dword_stack
                0x0000000070017630                OP_st_byte
                0x0000000070017694                OP_st_word
                0x00000000700176f8                OP_st_dword
                0x000000007001775c                OP_pop
                0x0000000070017790                OP_call
 .text          0x0000000070017dd8     0x174c build/kernel/components/finsh/finsh_parser.o
                0x0000000070019288                finsh_parser_run
                0x00000000700194f4                finsh_parser_init
 .text          0x0000000070019524      0x4a4 build/kernel/components/finsh/finsh_var.o
                0x0000000070019524                finsh_var_init
                0x000000007001954c                finsh_var_insert
                0x00000000700196a4                finsh_var_delete
                0x000000007001976c                finsh_var_lookup
                0x0000000070019820                finsh_sysvar_append
                0x00000000700198e0                finsh_sysvar_lookup
 .text          0x00000000700199c8      0x258 build/kernel/components/finsh/finsh_vm.o
                0x00000000700199c8                finsh_vm_run
                0x0000000070019a8c                finsh_syscall_append
                0x0000000070019b38                finsh_syscall_lookup
 .text          0x0000000070019c20     0x1188 build/kernel/components/finsh/finsh_token.o
                0x0000000070019c20                finsh_token_init
                0x0000000070019c58                finsh_token_token
                0x0000000070019ca4                finsh_token_get_token
                0x0000000070019cd8                token_get_string
 .text          0x000000007001ada8      0x4a4 build/kernel/components/pthreads/clock_time.o
                0x000000007001ada8                clock_time_system_init
                0x000000007001ae68                clock_time_to_tick
                0x000000007001affc                clock_getres
                0x000000007001b064                clock_gettime
                0x000000007001b140                clock_settime
 .text          0x000000007001b24c      0x7ec build/kernel/components/pthreads/mqueue.o
                0x000000007001b24c                posix_mq_system_init
                0x000000007001b424                mq_setattr
                0x000000007001b454                mq_getattr
                0x000000007001b4e8                mq_open
                0x000000007001b6d0                mq_receive
                0x000000007001b760                mq_send
                0x000000007001b7ec                mq_timedreceive
                0x000000007001b8a0                mq_timedsend
                0x000000007001b8e0                mq_notify
                0x000000007001b90c                mq_close
                0x000000007001b9a4                mq_unlink
 .text          0x000000007001ba38     0x119c build/kernel/components/pthreads/pthread.o
                0x000000007001bbfc                pthread_system_init
                0x000000007001bcc4                pthread_create
                0x000000007001c0c4                pthread_detach
                0x000000007001c1c0                pthread_join
                0x000000007001c274                pthread_exit
                0x000000007001c3fc                pthread_once
                0x000000007001c558                pthread_atfork
                0x000000007001c584                pthread_kill
                0x000000007001c5ac                pthread_cleanup_pop
                0x000000007001c6c4                pthread_cleanup_push
                0x000000007001c7cc                pthread_setcancelstate
                0x000000007001c8d8                pthread_setcanceltype
                0x000000007001c9e8                pthread_testcancel
                0x000000007001cad0                pthread_cancel
 .text          0x000000007001cbd4      0xc20 build/kernel/components/pthreads/pthread_attr.o
                0x000000007001cbd4                pthread_attr_init
                0x000000007001cc90                pthread_attr_destroy
                0x000000007001cd44                pthread_attr_setdetachstate
                0x000000007001ce1c                pthread_attr_getdetachstate
                0x000000007001ced8                pthread_attr_setschedpolicy
                0x000000007001cf90                pthread_attr_getschedpolicy
                0x000000007001d04c                pthread_attr_setschedparam
                0x000000007001d18c                pthread_attr_getschedparam
                0x000000007001d2cc                pthread_attr_setstacksize
                0x000000007001d384                pthread_attr_getstacksize
                0x000000007001d440                pthread_attr_setstackaddr
                0x000000007001d4e8                pthread_attr_getstackaddr
                0x000000007001d590                pthread_attr_setstack
                0x000000007001d660                pthread_attr_getstack
                0x000000007001d730                pthread_attr_setguardsize
                0x000000007001d758                pthread_attr_getguardsize
                0x000000007001d780                pthread_attr_setscope
                0x000000007001d7d0                pthread_attr_getscope
 .text          0x000000007001d7f4      0x548 build/kernel/components/pthreads/pthread_tls.o
                0x000000007001d9b8                pthread_key_system_init
                0x000000007001d9d8                pthread_getspecific
                0x000000007001dae8                pthread_setspecific
                0x000000007001dc10                pthread_key_create
                0x000000007001dcc8                pthread_key_delete
 .text          0x000000007001dd3c      0x900 build/kernel/components/pthreads/semaphore.o
                0x000000007001dd3c                posix_sem_system_init
                0x000000007001df14                sem_close
                0x000000007001dfb4                sem_destroy
                0x000000007001e060                sem_unlink
                0x000000007001e0f4                sem_getvalue
                0x000000007001e158                sem_init
                0x000000007001e260                sem_open
                0x000000007001e434                sem_post
                0x000000007001e4a0                sem_timedwait
                0x000000007001e540                sem_trywait
                0x000000007001e5cc                sem_wait
 .text          0x000000007001e63c       0x30 build/kernel/components/libc/newlib/libc.o
                0x000000007001e63c                libc_system_init
 .text          0x000000007001e66c      0x680 build/kernel/components/libc/newlib/syscalls.o
                0x000000007001e66c                _close_r
                0x000000007001e694                _execve_r
                0x000000007001e6d0                _fcntl_r
                0x000000007001e70c                _fork_r
                0x000000007001e73c                _fstat_r
                0x000000007001e774                _getpid_r
                0x000000007001e798                _isatty_r
                0x000000007001e7ec                _kill_r
                0x000000007001e824                _link_r
                0x000000007001e85c                _lseek_r
                0x000000007001e88c                _mkdir_r
                0x000000007001e8b8                _open_r
                0x000000007001e8e8                _read_r
                0x000000007001e918                _rename_r
                0x000000007001e944                _sbrk_r
                0x000000007001e96c                _stat_r
                0x000000007001e998                _times_r
                0x000000007001e9cc                _unlink_r
                0x000000007001e9f4                _wait_r
                0x000000007001ea28                _write_r
                0x000000007001ea90                _gettimeofday_r
                0x000000007001eb18                _malloc_r
                0x000000007001eb60                _realloc_r
                0x000000007001ebb0                _calloc_r
                0x000000007001ec00                _free_r
                0x000000007001ec24                _exit
                0x000000007001eccc                _system
 .text          0x000000007001ecec     0x11f8 build/kernel/components/utilities/logtrace/log_trace.o
                0x000000007001ef18                log_trace_register_session
                0x000000007001f0e0                log_trace_session_find
                0x000000007001f19c                log_trace_set_level
                0x000000007001f1cc                log_trace_session_set_level
                0x000000007001f628                __logtrace_vfmtout
                0x000000007001f864                log_trace
                0x000000007001f99c                log_session
                0x000000007001fb28                log_trace_flush
                0x000000007001fd34                log_trace_init
                0x000000007001fe20                log_trace_get_device
                0x000000007001fe44                log_trace_set_device
 .text          0x000000007001fee4      0x568 build/kernel/components/drivers/src/completion.o
                0x000000007001ffb0                rt_completion_init
                0x0000000070020078                rt_completion_wait
                0x000000007002033c                rt_completion_done
 .text          0x000000007002044c      0xc90 build/kernel/components/drivers/src/dataqueue.o
                0x0000000070020518                rt_data_queue_init
                0x0000000070020664                rt_data_queue_push
                0x00000000700209d4                rt_data_queue_pop
                0x0000000070020ea0                rt_data_queue_peak
                0x0000000070021000                rt_data_queue_reset
 .text          0x00000000700210dc     0x1d28 build/kernel/components/drivers/serial/serial.o
                0x0000000070022860                rt_hw_serial_register
                0x00000000700229c0                rt_hw_serial_isr
 .text          0x0000000070022e04      0x23c /usr/lib/gcc/arm-none-eabi/4.8.2/../../../arm-none-eabi/lib/armv7-ar/thumb/softfp/libc.a(lib_a-strcmp.o)
                0x0000000070022e04                strcmp
 .text          0x0000000070023040      0x278 /usr/lib/gcc/arm-none-eabi/4.8.2/armv7-ar/thumb/softfp/libgcc.a(_udivsi3.o)
                0x0000000070023040                __udivsi3
                0x0000000070023040                __aeabi_uidiv
                0x000000007002329c                __aeabi_uidivmod
 .text          0x00000000700232b8      0x2b0 /usr/lib/gcc/arm-none-eabi/4.8.2/armv7-ar/thumb/softfp/libgcc.a(_divsi3.o)
                0x00000000700232b8                __aeabi_idiv
                0x00000000700232b8                __divsi3
                0x000000007002354c                __aeabi_idivmod
 .text          0x0000000070023568        0x4 /usr/lib/gcc/arm-none-eabi/4.8.2/armv7-ar/thumb/softfp/libgcc.a(_dvmd_tls.o)
                0x0000000070023568                __aeabi_ldiv0
                0x0000000070023568                __aeabi_idiv0
 .text          0x000000007002356c       0x2c /usr/lib/gcc/arm-none-eabi/4.8.2/armv7-ar/thumb/softfp/libgcc.a(_aeabi_uldivmod.o)
                0x000000007002356c                __aeabi_uldivmod
 .text          0x0000000070023598       0x60 /usr/lib/gcc/arm-none-eabi/4.8.2/armv7-ar/thumb/softfp/libgcc.a(bpabi.o)
                0x0000000070023598                __gnu_ldivmod_helper
                0x00000000700235c8                __gnu_uldivmod_helper
 .text          0x00000000700235f8      0x354 /usr/lib/gcc/arm-none-eabi/4.8.2/armv7-ar/thumb/softfp/libgcc.a(_divdi3.o)
                0x00000000700235f8                __divdi3
 .text          0x000000007002394c      0x300 /usr/lib/gcc/arm-none-eabi/4.8.2/armv7-ar/thumb/softfp/libgcc.a(_udivdi3.o)
                0x000000007002394c                __udivdi3
 *(.text.*)
 .text.isr      0x0000000070023c4c       0x64 build/kernel/libcpu/arm/realview-a8-vmm/context_gcc.o
                0x0000000070023c4c                rt_hw_context_switch
                0x0000000070023c78                rt_hw_context_switch_interrupt
 *fill*         0x0000000070023cb0       0x10 00000000
 .text.isr      0x0000000070023cc0      0x1e0 build/kernel/libcpu/arm/realview-a8-vmm/start_gcc.o
                0x0000000070023cc0                vector_fiq
                0x0000000070023ce0                vector_irq
                0x0000000070023d60                vector_swi
                0x0000000070023da0                vector_undef
                0x0000000070023de0                vector_pabt
                0x0000000070023e20                vector_dabt
                0x0000000070023e60                vector_resv
 .text.atoi     0x0000000070023ea0        0x8 /usr/lib/gcc/arm-none-eabi/4.8.2/../../../arm-none-eabi/lib/armv7-ar/thumb/softfp/libc.a(lib_a-atoi.o)
                0x0000000070023ea0                atoi
 .text.memcpy   0x0000000070023ea8       0xa8 /usr/lib/gcc/arm-none-eabi/4.8.2/../../../arm-none-eabi/lib/armv7-ar/thumb/softfp/libc.a(lib_a-memcpy-stub.o)
                0x0000000070023ea8                memcpy
 .text.memset   0x0000000070023f50       0xa0 /usr/lib/gcc/arm-none-eabi/4.8.2/../../../arm-none-eabi/lib/armv7-ar/thumb/softfp/libc.a(lib_a-memset.o)
                0x0000000070023f50                memset
 .text.putenv   0x0000000070023ff0       0x10 /usr/lib/gcc/arm-none-eabi/4.8.2/../../../arm-none-eabi/lib/armv7-ar/thumb/softfp/libc.a(lib_a-putenv.o)
                0x0000000070023ff0                putenv
 .text._putenv_r
                0x0000000070024000       0x44 /usr/lib/gcc/arm-none-eabi/4.8.2/../../../arm-none-eabi/lib/armv7-ar/thumb/softfp/libc.a(lib_a-putenv_r.o)
                0x0000000070024000                _putenv_r
 .text._setenv_r
                0x0000000070024044      0x1d0 /usr/lib/gcc/arm-none-eabi/4.8.2/../../../arm-none-eabi/lib/armv7-ar/thumb/softfp/libc.a(lib_a-setenv_r.o)
                0x0000000070024044                _setenv_r
 .text.strchr   0x0000000070024214       0xf8 /usr/lib/gcc/arm-none-eabi/4.8.2/../../../arm-none-eabi/lib/armv7-ar/thumb/softfp/libc.a(lib_a-strchr.o)
                0x0000000070024214                strchr
 .text._strdup_r
                0x000000007002430c       0x28 /usr/lib/gcc/arm-none-eabi/4.8.2/../../../arm-none-eabi/lib/armv7-ar/thumb/softfp/libc.a(lib_a-strdup_r.o)
                0x000000007002430c                _strdup_r
 .text.strlen   0x0000000070024334       0x60 /usr/lib/gcc/arm-none-eabi/4.8.2/../../../arm-none-eabi/lib/armv7-ar/thumb/softfp/libc.a(lib_a-strlen.o)
                0x0000000070024334                strlen
 .text.strncmp  0x0000000070024394       0xb8 /usr/lib/gcc/arm-none-eabi/4.8.2/../../../arm-none-eabi/lib/armv7-ar/thumb/softfp/libc.a(lib_a-strncmp.o)
                0x0000000070024394                strncmp
 .text.strncpy  0x000000007002444c       0x68 /usr/lib/gcc/arm-none-eabi/4.8.2/../../../arm-none-eabi/lib/armv7-ar/thumb/softfp/libc.a(lib_a-strncpy.o)
                0x000000007002444c                strncpy
 .text._strtol_r
                0x00000000700244b4      0x13c /usr/lib/gcc/arm-none-eabi/4.8.2/../../../arm-none-eabi/lib/armv7-ar/thumb/softfp/libc.a(lib_a-strtol.o)
                0x00000000700244b4                _strtol_r
 .text.strtol   0x00000000700245f0       0x1c /usr/lib/gcc/arm-none-eabi/4.8.2/../../../arm-none-eabi/lib/armv7-ar/thumb/softfp/libc.a(lib_a-strtol.o)
                0x00000000700245f0                strtol
 .text.tzset    0x000000007002460c       0x10 /usr/lib/gcc/arm-none-eabi/4.8.2/../../../arm-none-eabi/lib/armv7-ar/thumb/softfp/libc.a(lib_a-tzset.o)
                0x000000007002460c                tzset
 .text._tzset_r
                0x000000007002461c      0x3b4 /usr/lib/gcc/arm-none-eabi/4.8.2/../../../arm-none-eabi/lib/armv7-ar/thumb/softfp/libc.a(lib_a-tzset_r.o)
                0x000000007002461c                _tzset_r
 .text.__env_lock
                0x00000000700249d0        0x4 /usr/lib/gcc/arm-none-eabi/4.8.2/../../../arm-none-eabi/lib/armv7-ar/thumb/softfp/libc.a(lib_a-envlock.o)
                0x00000000700249d0                __env_lock
 .text.__env_unlock
                0x00000000700249d4        0x4 /usr/lib/gcc/arm-none-eabi/4.8.2/../../../arm-none-eabi/lib/armv7-ar/thumb/softfp/libc.a(lib_a-envlock.o)
                0x00000000700249d4                __env_unlock
 .text.__errno  0x00000000700249d8        0xc /usr/lib/gcc/arm-none-eabi/4.8.2/../../../arm-none-eabi/lib/armv7-ar/thumb/softfp/libc.a(lib_a-errno.o)
                0x00000000700249d8                __errno
 .text._findenv_r
                0x00000000700249e4       0x84 /usr/lib/gcc/arm-none-eabi/4.8.2/../../../arm-none-eabi/lib/armv7-ar/thumb/softfp/libc.a(lib_a-getenv_r.o)
                0x00000000700249e4                _findenv_r
 .text._getenv_r
                0x0000000070024a68       0x10 /usr/lib/gcc/arm-none-eabi/4.8.2/../../../arm-none-eabi/lib/armv7-ar/thumb/softfp/libc.a(lib_a-getenv_r.o)
                0x0000000070024a68                _getenv_r
 .text.__gettzinfo
                0x0000000070024a78        0xc /usr/lib/gcc/arm-none-eabi/4.8.2/../../../arm-none-eabi/lib/armv7-ar/thumb/softfp/libc.a(lib_a-gettzinfo.o)
                0x0000000070024a78                __gettzinfo
 .text.free     0x0000000070024a84       0x10 /usr/lib/gcc/arm-none-eabi/4.8.2/../../../arm-none-eabi/lib/armv7-ar/thumb/softfp/libc.a(lib_a-malloc.o)
                0x0000000070024a84                free
 .text.__tzcalc_limits
                0x0000000070024a94      0x1a0 /usr/lib/gcc/arm-none-eabi/4.8.2/../../../arm-none-eabi/lib/armv7-ar/thumb/softfp/libc.a(lib_a-mktm_r.o)
                0x0000000070024a94                __tzcalc_limits
 .text.siscanf  0x0000000070024c34       0x5c /usr/lib/gcc/arm-none-eabi/4.8.2/../../../arm-none-eabi/lib/armv7-ar/thumb/softfp/libc.a(lib_a-siscanf.o)
                0x0000000070024c34                siscanf
 .text.__seofread
                0x0000000070024c90        0x4 /usr/lib/gcc/arm-none-eabi/4.8.2/../../../arm-none-eabi/lib/armv7-ar/thumb/softfp/libc.a(lib_a-stdio.o)
                0x0000000070024c90                __seofread
 .text.strcpy   0x0000000070024c94       0xbc /usr/lib/gcc/arm-none-eabi/4.8.2/../../../arm-none-eabi/lib/armv7-ar/thumb/softfp/libc.a(lib_a-strcpy.o)
                0x0000000070024c94                strcpy
 .text._strtoul_r
                0x0000000070024d50      0x140 /usr/lib/gcc/arm-none-eabi/4.8.2/../../../arm-none-eabi/lib/armv7-ar/thumb/softfp/libc.a(lib_a-strtoul.o)
                0x0000000070024d50                _strtoul_r
 .text.strtoul  0x0000000070024e90       0x1c /usr/lib/gcc/arm-none-eabi/4.8.2/../../../arm-none-eabi/lib/armv7-ar/thumb/softfp/libc.a(lib_a-strtoul.o)
                0x0000000070024e90                strtoul
 .text._sungetc_r
                0x0000000070024eac       0x80 /usr/lib/gcc/arm-none-eabi/4.8.2/../../../arm-none-eabi/lib/armv7-ar/thumb/softfp/libc.a(lib_a-svfiscanf.o)
                0x0000000070024eac                _sungetc_r
 .text.__ssrefill_r
                0x0000000070024f2c       0x3c /usr/lib/gcc/arm-none-eabi/4.8.2/../../../arm-none-eabi/lib/armv7-ar/thumb/softfp/libc.a(lib_a-svfiscanf.o)
                0x0000000070024f2c                __ssrefill_r
 .text._sfread_r
                0x0000000070024f68       0x7c /usr/lib/gcc/arm-none-eabi/4.8.2/../../../arm-none-eabi/lib/armv7-ar/thumb/softfp/libc.a(lib_a-svfiscanf.o)
                0x0000000070024f68                _sfread_r
 .text.__ssvfiscanf_r
                0x0000000070024fe4      0x9d8 /usr/lib/gcc/arm-none-eabi/4.8.2/../../../arm-none-eabi/lib/armv7-ar/thumb/softfp/libc.a(lib_a-svfiscanf.o)
                0x0000000070024fe4                __ssvfiscanf_r
 .text.__tz_lock
                0x00000000700259bc        0x4 /usr/lib/gcc/arm-none-eabi/4.8.2/../../../arm-none-eabi/lib/armv7-ar/thumb/softfp/libc.a(lib_a-tzlock.o)
                0x00000000700259bc                __tz_lock
 .text.__tz_unlock
                0x00000000700259c0        0x4 /usr/lib/gcc/arm-none-eabi/4.8.2/../../../arm-none-eabi/lib/armv7-ar/thumb/softfp/libc.a(lib_a-tzlock.o)
                0x00000000700259c0                __tz_unlock
 .text.__submore
                0x00000000700259c4       0x7c /usr/lib/gcc/arm-none-eabi/4.8.2/../../../arm-none-eabi/lib/armv7-ar/thumb/softfp/libc.a(lib_a-ungetc.o)
                0x00000000700259c4                __submore
 .text.iswspace
                0x0000000070025a40       0x20 /usr/lib/gcc/arm-none-eabi/4.8.2/../../../arm-none-eabi/lib/armv7-ar/thumb/softfp/libc.a(lib_a-iswspace.o)
                0x0000000070025a40                iswspace
 .text.__locale_charset
                0x0000000070025a60        0xc /usr/lib/gcc/arm-none-eabi/4.8.2/../../../arm-none-eabi/lib/armv7-ar/thumb/softfp/libc.a(lib_a-locale.o)
                0x0000000070025a60                __locale_charset
 .text.__locale_mb_cur_max
                0x0000000070025a6c        0xc /usr/lib/gcc/arm-none-eabi/4.8.2/../../../arm-none-eabi/lib/armv7-ar/thumb/softfp/libc.a(lib_a-locale.o)
                0x0000000070025a6c                __locale_mb_cur_max
 .text._mbrtowc_r
                0x0000000070025a78       0x64 /usr/lib/gcc/arm-none-eabi/4.8.2/../../../arm-none-eabi/lib/armv7-ar/thumb/softfp/libc.a(lib_a-mbrtowc.o)
                0x0000000070025a78                _mbrtowc_r
 .text.__ascii_mbtowc
                0x0000000070025adc       0x2c /usr/lib/gcc/arm-none-eabi/4.8.2/../../../arm-none-eabi/lib/armv7-ar/thumb/softfp/libc.a(lib_a-mbtowc_r.o)
                0x0000000070025adc                __ascii_mbtowc
 .text.__sccl   0x0000000070025b08       0x80 /usr/lib/gcc/arm-none-eabi/4.8.2/../../../arm-none-eabi/lib/armv7-ar/thumb/softfp/libc.a(lib_a-sccl.o)
                0x0000000070025b08                __sccl
 .text._strtoll_r
                0x0000000070025b88      0x1b4 /usr/lib/gcc/arm-none-eabi/4.8.2/../../../arm-none-eabi/lib/armv7-ar/thumb/softfp/libc.a(lib_a-strtoll_r.o)
                0x0000000070025b88                _strtoll_r
 .text._strtoull_r
                0x0000000070025d3c      0x1e8 /usr/lib/gcc/arm-none-eabi/4.8.2/../../../arm-none-eabi/lib/armv7-ar/thumb/softfp/libc.a(lib_a-strtoull_r.o)
                0x0000000070025d3c                _strtoull_r
 *fill*         0x0000000070025f24        0x4 00000000
 .text._strtoull_r.__stub
                0x0000000070025f28        0x8 linker stubs
                0x0000000070025f30                . = ALIGN (0x4)
                0x0000000070025f30                __fsymtab_start = .
 *(FSymTab)
 FSymTab        0x0000000070025f30        0xc build/kernel/src/mem.o
                0x0000000070025f30                __fsym_list_mem
 FSymTab        0x0000000070025f3c        0xc build/kernel/libcpu/arm/realview-a8-vmm/gic.o
                0x0000000070025f3c                __fsym_gic
 FSymTab        0x0000000070025f48      0x108 build/kernel/components/finsh/cmd.o
                0x0000000070025f48                __fsym_hello
                0x0000000070025f54                __fsym_version
                0x0000000070025f60                __fsym___cmd_version
                0x0000000070025f6c                __fsym_list_thread
                0x0000000070025f78                __fsym___cmd_list_thread
                0x0000000070025f84                __fsym_list_sem
                0x0000000070025f90                __fsym___cmd_list_sem
                0x0000000070025f9c                __fsym_list_event
                0x0000000070025fa8                __fsym___cmd_list_event
                0x0000000070025fb4                __fsym_list_mutex
                0x0000000070025fc0                __fsym___cmd_list_mutex
                0x0000000070025fcc                __fsym_list_mailbox
                0x0000000070025fd8                __fsym___cmd_list_mailbox
                0x0000000070025fe4                __fsym_list_msgqueue
                0x0000000070025ff0                __fsym___cmd_list_msgqueue
                0x0000000070025ffc                __fsym_list_mempool
                0x0000000070026008                __fsym___cmd_list_mempool
                0x0000000070026014                __fsym_list_timer
                0x0000000070026020                __fsym___cmd_list_timer
                0x000000007002602c                __fsym_list_device
                0x0000000070026038                __fsym___cmd_list_device
                0x0000000070026044                __fsym_list
 FSymTab        0x0000000070026050       0x24 build/kernel/components/finsh/msh_cmd.o
                0x0000000070026050                __fsym___cmd_ps
                0x000000007002605c                __fsym___cmd_time
                0x0000000070026068                __fsym___cmd_free
 FSymTab        0x0000000070026074       0x24 build/kernel/components/finsh/msh.o
                0x0000000070026074                __fsym___cmd_exit
                0x0000000070026080                __fsym_msh
                0x000000007002608c                __fsym___cmd_help
 FSymTab        0x0000000070026098       0x30 build/kernel/components/utilities/logtrace/log_trace.o
                0x0000000070026098                __fsym_log_level
                0x00000000700260a4                __fsym_log_trace
                0x00000000700260b0                __fsym_log_flush
                0x00000000700260bc                __fsym_log_device
                0x00000000700260c8                __fsymtab_end = .
                0x00000000700260c8                . = ALIGN (0x4)
                0x00000000700260c8                __vsymtab_start = .
 *(VSymTab)
 VSymTab        0x00000000700260c8       0x10 build/kernel/components/finsh/cmd.o
                0x00000000700260c8                __vsym_dummy
                0x00000000700260d8                __vsymtab_end = .
                0x00000000700260d8                . = ALIGN (0x4)
                0x00000000700260d8                . = ALIGN (0x4)
                0x00000000700260d8                __rtmsymtab_start = .
 *(RTMSymTab)
                0x00000000700260d8                __rtmsymtab_end = .
                0x00000000700260d8                . = ALIGN (0x4)
                0x00000000700260d8                __rt_init_start = .
 *(SORT(.rti_fn*))
 .rti_fn.0      0x00000000700260d8        0x4 build/kernel/src/components.o
                0x00000000700260d8                __rt_init_rti_start
 .rti_fn.1      0x00000000700260dc        0x4 build/bsp/drivers/board.o
                0x00000000700260dc                __rt_init_rt_hw_timer_init
 .rti_fn.1      0x00000000700260e0        0x4 build/bsp/drivers/serial.o
                0x00000000700260e0                __rt_init_rt_hw_uart_init
 .rti_fn.1.end  0x00000000700260e4        0x4 build/kernel/src/components.o
                0x00000000700260e4                __rt_init_rti_board_end
 .rti_fn.3      0x00000000700260e8        0x4 build/kernel/components/finsh/shell.o
                0x00000000700260e8                __rt_init_finsh_system_init
 .rti_fn.3      0x00000000700260ec        0x4 build/kernel/components/libc/newlib/libc.o
                0x00000000700260ec                __rt_init_libc_system_init
 .rti_fn.6.end  0x00000000700260f0        0x4 build/kernel/src/components.o
                0x00000000700260f0                __rt_init_rti_end
                0x00000000700260f4                __rt_init_end = .
                0x00000000700260f4                __text_end = .
                0x00000000700260f4                __rodata_start = .

.glue_7         0x00000000700260f4        0x0
 .glue_7        0x0000000000000000        0x0 linker stubs

.glue_7t        0x00000000700260f4        0x0
 .glue_7t       0x0000000000000000        0x0 linker stubs

.vfp11_veneer   0x00000000700260f4        0x0
 .vfp11_veneer  0x0000000000000000        0x0 linker stubs

.v4_bx          0x00000000700260f4        0x0
 .v4_bx         0x0000000000000000        0x0 linker stubs

.iplt           0x00000000700260f4        0x0
 .iplt          0x0000000000000000        0x0 /usr/lib/gcc/arm-none-eabi/4.8.2/armv7-ar/thumb/softfp/crtbegin.o

.rodata         0x00000000700260f4     0x2c84
 *(.rodata)
 .rodata        0x00000000700260f4        0x8 build/bsp/applications/application.o
 .rodata        0x00000000700260fc       0x10 build/bsp/drivers/board.o
 .rodata        0x000000007002610c       0x80 build/bsp/drivers/serial.o
 .rodata        0x000000007002618c      0x130 build/kernel/src/device.o
 .rodata        0x00000000700262bc       0x68 build/kernel/src/idle.o
 .rodata        0x0000000070026324      0x304 build/kernel/src/ipc.o
 .rodata        0x0000000070026628      0x1b8 build/kernel/src/kservice.o
                0x00000000700266b8                __lowest_bit_bitmap
 .rodata        0x00000000700267e0      0x348 build/kernel/src/mem.o
                0x0000000070026ab0                __fsym_list_mem_name
                0x0000000070026abc                __fsym_list_mem_desc
 .rodata        0x0000000070026b28       0xf0 build/kernel/src/object.o
 .rodata        0x0000000070026c18       0x6c build/kernel/src/scheduler.o
 .rodata        0x0000000070026c84      0x170 build/kernel/src/thread.o
 .rodata        0x0000000070026df4       0xbc build/kernel/src/timer.o
 .rodata        0x0000000070026eb0       0x48 build/kernel/libcpu/arm/realview-a8-vmm/cpu.o
 .rodata        0x0000000070026ef8      0x23c build/kernel/libcpu/arm/realview-a8-vmm/gic.o
                0x0000000070026ff8                __fsym_gic_name
                0x0000000070026ffc                __fsym_gic_desc
 .rodata        0x0000000070027134      0x13c build/kernel/libcpu/arm/realview-a8-vmm/trap.o
 .rodata        0x0000000070027270      0x160 build/kernel/components/finsh/shell.o
 .rodata        0x00000000700273d0      0xa3c build/kernel/components/finsh/cmd.o
                0x00000000700273e4                __fsym_hello_name
                0x00000000700273ec                __fsym_hello_desc
                0x00000000700273fc                __fsym_version_name
                0x0000000070027404                __fsym_version_desc
                0x0000000070027428                __fsym___cmd_version_name
                0x0000000070027438                __fsym___cmd_version_desc
                0x0000000070027554                __fsym_list_thread_name
                0x0000000070027560                __fsym_list_thread_desc
                0x000000007002756c                __fsym___cmd_list_thread_name
                0x0000000070027580                __fsym___cmd_list_thread_desc
                0x0000000070027600                __fsym_list_sem_name
                0x000000007002760c                __fsym_list_sem_desc
                0x0000000070027628                __fsym___cmd_list_sem_name
                0x0000000070027638                __fsym___cmd_list_sem_desc
                0x00000000700276c8                __fsym_list_event_name
                0x00000000700276d4                __fsym_list_event_desc
                0x00000000700276ec                __fsym___cmd_list_event_name
                0x0000000070027700                __fsym___cmd_list_event_desc
                0x0000000070027780                __fsym_list_mutex_name
                0x000000007002778c                __fsym_list_mutex_desc
                0x00000000700277a4                __fsym___cmd_list_mutex_name
                0x00000000700277b8                __fsym___cmd_list_mutex_desc
                0x0000000070027848                __fsym_list_mailbox_name
                0x0000000070027858                __fsym_list_mailbox_desc
                0x0000000070027870                __fsym___cmd_list_mailbox_name
                0x0000000070027884                __fsym___cmd_list_mailbox_desc
                0x0000000070027904                __fsym_list_msgqueue_name
                0x0000000070027914                __fsym_list_msgqueue_desc
                0x0000000070027934                __fsym___cmd_list_msgqueue_name
                0x0000000070027948                __fsym___cmd_list_msgqueue_desc
                0x00000000700279f8                __fsym_list_mempool_name
                0x0000000070027a08                __fsym_list_mempool_desc
                0x0000000070027a24                __fsym___cmd_list_mempool_name
                0x0000000070027a38                __fsym___cmd_list_mempool_desc
                0x0000000070027af4                __fsym_list_timer_name
                0x0000000070027b00                __fsym_list_timer_desc
                0x0000000070027b18                __fsym___cmd_list_timer_name
                0x0000000070027b2c                __fsym___cmd_list_timer_desc
                0x0000000070027d08                __fsym_list_device_name
                0x0000000070027d14                __fsym_list_device_desc
                0x0000000070027d2c                __fsym___cmd_list_device_name
                0x0000000070027d40                __fsym___cmd_list_device_desc
                0x0000000070027d9c                __fsym_list_name
                0x0000000070027da4                __fsym_list_desc
                0x0000000070027de8                __vsym_dummy_name
                0x0000000070027df0                __vsym_dummy_desc
 .rodata        0x0000000070027e0c       0x84 build/kernel/components/finsh/msh_cmd.o
                0x0000000070027e0c                __fsym___cmd_ps_name
                0x0000000070027e18                __fsym___cmd_ps_desc
                0x0000000070027e34                __fsym___cmd_time_name
                0x0000000070027e40                __fsym___cmd_time_desc
                0x0000000070027e5c                __fsym___cmd_free_name
                0x0000000070027e68                __fsym___cmd_free_desc
 .rodata        0x0000000070027e90       0xf4 build/kernel/components/finsh/msh.o
                0x0000000070027e90                __fsym___cmd_exit_name
                0x0000000070027e9c                __fsym___cmd_exit_desc
                0x0000000070027ebc                __fsym_msh_name
                0x0000000070027ec0                __fsym_msh_desc
                0x0000000070027f08                __fsym___cmd_help_name
                0x0000000070027f14                __fsym___cmd_help_desc
 .rodata        0x0000000070027f84       0xf4 build/kernel/components/finsh/finsh_error.o
 .rodata        0x0000000070028078       0xc4 build/kernel/components/finsh/finsh_ops.o
                0x0000000070028078                op_table
 .rodata        0x000000007002813c       0x80 build/kernel/components/finsh/finsh_token.o
 .rodata        0x00000000700281bc       0x48 build/kernel/components/pthreads/clock_time.o
 .rodata        0x0000000070028204        0x4 build/kernel/components/pthreads/mqueue.o
 .rodata        0x0000000070028208      0x15c build/kernel/components/pthreads/pthread.o
 .rodata        0x0000000070028364      0x1c4 build/kernel/components/pthreads/pthread_attr.o
                0x0000000070028364                pthread_default_attr
 .rodata        0x0000000070028528       0xa8 build/kernel/components/pthreads/pthread_tls.o
 .rodata        0x00000000700285d0       0x14 build/kernel/components/pthreads/semaphore.o
 .rodata        0x00000000700285e4       0x18 build/kernel/components/libc/newlib/libc.o
 .rodata        0x00000000700285fc       0x44 build/kernel/components/libc/newlib/syscalls.o
 .rodata        0x0000000070028640      0x1d0 build/kernel/components/utilities/logtrace/log_trace.o
                0x000000007002869c                __fsym_log_level_name
                0x00000000700286a8                __fsym_log_level_desc
                0x00000000700286f8                __fsym_log_trace_name
                0x0000000070028704                __fsym_log_trace_desc
                0x0000000070028710                __fsym_log_flush_name
                0x000000007002871c                __fsym_log_flush_desc
                0x0000000070028754                __fsym_log_device_name
                0x0000000070028760                __fsym_log_device_desc
 .rodata        0x0000000070028810       0xcc build/kernel/components/drivers/src/completion.o
 .rodata        0x00000000700288dc       0xd0 build/kernel/components/drivers/src/dataqueue.o
 .rodata        0x00000000700289ac      0x1e4 build/kernel/components/drivers/serial/serial.o
 *(.rodata.*)
 .rodata.str1.4
                0x0000000070028b90        0x2 /usr/lib/gcc/arm-none-eabi/4.8.2/../../../arm-none-eabi/lib/armv7-ar/thumb/softfp/libc.a(lib_a-impure.o)
                                          0x4 (size before relaxing)
 *fill*         0x0000000070028b92        0x2 
 .rodata.str1.4
                0x0000000070028b94        0x8 /usr/lib/gcc/arm-none-eabi/4.8.2/../../../arm-none-eabi/lib/armv7-ar/thumb/softfp/libc.a(lib_a-setenv_r.o)
 .rodata.str1.4
                0x0000000070028b9c       0x4f /usr/lib/gcc/arm-none-eabi/4.8.2/../../../arm-none-eabi/lib/armv7-ar/thumb/softfp/libc.a(lib_a-tzset_r.o)
                                         0x54 (size before relaxing)
 .rodata.str1.4
                0x0000000000000000        0x4 /usr/lib/gcc/arm-none-eabi/4.8.2/../../../arm-none-eabi/lib/armv7-ar/thumb/softfp/libc.a(lib_a-tzvars.o)
 *fill*         0x0000000070028beb        0x1 
 .rodata._ctype_
                0x0000000070028bec      0x104 /usr/lib/gcc/arm-none-eabi/4.8.2/../../../arm-none-eabi/lib/armv7-ar/thumb/softfp/libc.a(lib_a-ctype_.o)
                0x0000000070028bec                _ctype_
 .rodata.mon_lengths
                0x0000000070028cf0       0x60 /usr/lib/gcc/arm-none-eabi/4.8.2/../../../arm-none-eabi/lib/armv7-ar/thumb/softfp/libc.a(lib_a-mktm_r.o)
 .rodata.basefix.6175
                0x0000000070028d50       0x24 /usr/lib/gcc/arm-none-eabi/4.8.2/../../../arm-none-eabi/lib/armv7-ar/thumb/softfp/libc.a(lib_a-svfiscanf.o)
 .rodata.str1.4
                0x0000000070028d74        0x4 /usr/lib/gcc/arm-none-eabi/4.8.2/../../../arm-none-eabi/lib/armv7-ar/thumb/softfp/libc.a(lib_a-mbrtowc.o)
                0x0000000070028d78                __rodata_end = .

.ARM.exidx      0x0000000070028d78        0x8
 .ARM.exidx     0x0000000070028d78        0x8 /usr/lib/gcc/arm-none-eabi/4.8.2/armv7-ar/thumb/softfp/libgcc.a(_divdi3.o)
 .ARM.exidx     0x0000000070028d80        0x0 /usr/lib/gcc/arm-none-eabi/4.8.2/armv7-ar/thumb/softfp/libgcc.a(_udivdi3.o)
                                          0x8 (size before relaxing)

.rel.dyn        0x0000000070028d80        0x0
 .rel.iplt      0x0000000000000000        0x0 /usr/lib/gcc/arm-none-eabi/4.8.2/armv7-ar/thumb/softfp/crtbegin.o
                0x0000000070028d80                . = ALIGN (0x4)

.ctors          0x0000000070028d80        0x0
                0x0000000070028d80                PROVIDE (__ctors_start__, .)
 *(SORT(.ctors.*))
 *(.ctors)
                0x0000000070028d80                PROVIDE (__ctors_end__, .)

.dtors          0x0000000070028d80        0x0
                0x0000000070028d80                PROVIDE (__dtors_start__, .)
 *(SORT(.dtors.*))
 *(.dtors)
                0x0000000070028d80                PROVIDE (__dtors_end__, .)
                0x0000000070028d80                __data_start = .
                0x0000000070028d80                . = ALIGN (0x4)

.data           0x0000000070028d80      0x7cc
 *(.data)
 .data          0x0000000070028d80        0x8 build/bsp/drivers/serial.o
 .data          0x0000000070028d88       0x90 build/kernel/src/object.o
                0x0000000070028d88                rt_object_container
 .data          0x0000000070028e18        0x4 build/kernel/components/finsh/msh.o
 .data          0x0000000070028e1c       0x3c build/kernel/components/finsh/finsh_error.o
 .data          0x0000000070028e58       0x50 build/kernel/components/utilities/logtrace/log_trace.o
 *(.data.*)
 .data.share.isr
                0x0000000070028ea8      0x200 build/kernel/libcpu/arm/realview-a8-vmm/start_gcc.o
                0x0000000070028ea8                stack_start
                0x00000000700290a8                stack_top
 .data.impure_data
                0x00000000700290a8      0x428 /usr/lib/gcc/arm-none-eabi/4.8.2/../../../arm-none-eabi/lib/armv7-ar/thumb/softfp/libc.a(lib_a-impure.o)
 .data._impure_ptr
                0x00000000700294d0        0x4 /usr/lib/gcc/arm-none-eabi/4.8.2/../../../arm-none-eabi/lib/armv7-ar/thumb/softfp/libc.a(lib_a-impure.o)
                0x00000000700294d0                _impure_ptr
 .data._tzname  0x00000000700294d4        0x8 /usr/lib/gcc/arm-none-eabi/4.8.2/../../../arm-none-eabi/lib/armv7-ar/thumb/softfp/libc.a(lib_a-tzvars.o)
                0x00000000700294d4                _tzname
 .data.__ctype_ptr__
                0x00000000700294dc        0x4 /usr/lib/gcc/arm-none-eabi/4.8.2/../../../arm-none-eabi/lib/armv7-ar/thumb/softfp/libc.a(lib_a-ctype_.o)
                0x00000000700294dc                __ctype_ptr__
 .data.environ  0x00000000700294e0        0x4 /usr/lib/gcc/arm-none-eabi/4.8.2/../../../arm-none-eabi/lib/armv7-ar/thumb/softfp/libc.a(lib_a-environ.o)
                0x00000000700294e0                environ
 .data.tzinfo   0x00000000700294e4       0x40 /usr/lib/gcc/arm-none-eabi/4.8.2/../../../arm-none-eabi/lib/armv7-ar/thumb/softfp/libc.a(lib_a-gettzinfo.o)
 .data.lc_ctype_charset
                0x0000000070029524       0x20 /usr/lib/gcc/arm-none-eabi/4.8.2/../../../arm-none-eabi/lib/armv7-ar/thumb/softfp/libc.a(lib_a-locale.o)
 .data.__mb_cur_max
                0x0000000070029544        0x4 /usr/lib/gcc/arm-none-eabi/4.8.2/../../../arm-none-eabi/lib/armv7-ar/thumb/softfp/libc.a(lib_a-locale.o)
                0x0000000070029544                __mb_cur_max
 .data.__mbtowc
                0x0000000070029548        0x4 /usr/lib/gcc/arm-none-eabi/4.8.2/../../../arm-none-eabi/lib/armv7-ar/thumb/softfp/libc.a(lib_a-mbtowc_r.o)
                0x0000000070029548                __mbtowc
                0x000000007002954c                __data_end = .

.igot.plt       0x000000007002954c        0x0
 .igot.plt      0x0000000000000000        0x0 /usr/lib/gcc/arm-none-eabi/4.8.2/armv7-ar/thumb/softfp/crtbegin.o
                0x000000007002954c                . = ALIGN (0x4)
                0x000000007002954c                __bss_start = __data_end

.bss            0x000000007002954c     0x2330
 *(.bss)
 .bss           0x000000007002954c       0x50 build/bsp/drivers/serial.o
 .bss           0x000000007002959c        0x4 build/kernel/src/clock.o
 .bss           0x00000000700295a0      0x27c build/kernel/src/idle.o
 .bss           0x000000007002981c       0x88 build/kernel/src/kservice.o
 .bss           0x00000000700298a4       0x3c build/kernel/src/mem.o
 .bss           0x00000000700298e0        0x8 build/kernel/src/object.o
 .bss           0x00000000700298e8        0x8 build/kernel/src/scheduler.o
 .bss           0x00000000700298f0       0x10 build/kernel/src/timer.o
 .bss           0x0000000070029900       0x10 build/kernel/libcpu/arm/realview-a8-vmm/gic.o
 .bss           0x0000000070029910     0x10fc build/kernel/components/finsh/shell.o
 .bss           0x000000007002aa0c       0x10 build/kernel/components/finsh/symbol.o
                0x000000007002aa0c                _syscall_table_begin
                0x000000007002aa10                _syscall_table_end
                0x000000007002aa14                _sysvar_table_begin
                0x000000007002aa18                _sysvar_table_end
 .bss           0x000000007002aa1c        0x4 build/kernel/components/finsh/cmd.o
 .bss           0x000000007002aa20        0x8 build/kernel/components/finsh/finsh_heap.o
 .bss           0x000000007002aa28        0x4 build/kernel/components/finsh/finsh_vm.o
                0x000000007002aa28                global_syscall_list
 .bss           0x000000007002aa2c       0x20 build/kernel/components/pthreads/mqueue.o
 .bss           0x000000007002aa4c        0x2 build/kernel/components/pthreads/pthread.o
 *fill*         0x000000007002aa4e        0x2 
 .bss           0x000000007002aa50       0x24 build/kernel/components/pthreads/semaphore.o
 .bss           0x000000007002aa74       0xc4 build/kernel/components/utilities/logtrace/log_trace.o
 *(.bss.*)
 .bss.share.int
                0x000000007002ab38        0xc build/kernel/libcpu/arm/realview-a8-vmm/interrupt.o
                0x000000007002ab38                rt_interrupt_from_thread
                0x000000007002ab3c                rt_interrupt_to_thread
                0x000000007002ab40                rt_thread_switch_interrupt_flag
 .bss.alloced.4581
                0x000000007002ab44        0x4 /usr/lib/gcc/arm-none-eabi/4.8.2/../../../arm-none-eabi/lib/armv7-ar/thumb/softfp/libc.a(lib_a-setenv_r.o)
 .bss.__tzname_dst
                0x000000007002ab48        0xc /usr/lib/gcc/arm-none-eabi/4.8.2/../../../arm-none-eabi/lib/armv7-ar/thumb/softfp/libc.a(lib_a-tzset_r.o)
 .bss.__tzname_std
                0x000000007002ab54        0xc /usr/lib/gcc/arm-none-eabi/4.8.2/../../../arm-none-eabi/lib/armv7-ar/thumb/softfp/libc.a(lib_a-tzset_r.o)
 .bss.prev_tzenv
                0x000000007002ab60        0x4 /usr/lib/gcc/arm-none-eabi/4.8.2/../../../arm-none-eabi/lib/armv7-ar/thumb/softfp/libc.a(lib_a-tzset_r.o)
 .bss._daylight
                0x000000007002ab64        0x4 /usr/lib/gcc/arm-none-eabi/4.8.2/../../../arm-none-eabi/lib/armv7-ar/thumb/softfp/libc.a(lib_a-tzvars.o)
                0x000000007002ab64                _daylight
 .bss._timezone
                0x000000007002ab68        0x4 /usr/lib/gcc/arm-none-eabi/4.8.2/../../../arm-none-eabi/lib/armv7-ar/thumb/softfp/libc.a(lib_a-tzvars.o)
                0x000000007002ab68                _timezone
 .bss.initial_env
                0x000000007002ab6c        0x4 /usr/lib/gcc/arm-none-eabi/4.8.2/../../../arm-none-eabi/lib/armv7-ar/thumb/softfp/libc.a(lib_a-environ.o)
 *(COMMON)
 COMMON         0x000000007002ab70        0x1 build/kernel/src/irq.o
                0x000000007002ab70                rt_interrupt_nest
 *fill*         0x000000007002ab71        0x3 
 COMMON         0x000000007002ab74        0x4 build/kernel/src/kservice.o
                0x000000007002ab74                rt_assert_hook
 COMMON         0x000000007002ab78        0xc build/kernel/src/object.o
                0x000000007002ab78                rt_object_put_hook
                0x000000007002ab7c                rt_object_take_hook
                0x000000007002ab80                rt_object_trytake_hook
 COMMON         0x000000007002ab84      0x114 build/kernel/src/scheduler.o
                0x000000007002ab84                rt_thread_priority_table
                0x000000007002ac84                rt_current_priority
                0x000000007002ac88                rt_current_thread
                0x000000007002ac8c                rt_thread_ready_priority_group
                0x000000007002ac90                rt_thread_defunct
 COMMON         0x000000007002ac98      0x780 build/kernel/libcpu/arm/realview-a8-vmm/interrupt.o
                0x000000007002ac98                isr_table
 COMMON         0x000000007002b418        0x4 build/kernel/components/finsh/shell.o
                0x000000007002b418                shell
 COMMON         0x000000007002b41c        0x8 build/kernel/components/finsh/finsh_compiler.o
                0x000000007002b41c                finsh_compile_pc
                0x000000007002b420                finsh_compile_sp
 COMMON         0x000000007002b424        0x1 build/kernel/components/finsh/finsh_error.o
                0x000000007002b424                global_errno
 *fill*         0x000000007002b425        0x3 
 COMMON         0x000000007002b428       0x80 build/kernel/components/finsh/finsh_heap.o
                0x000000007002b428                finsh_heap
 COMMON         0x000000007002b4a8      0x140 build/kernel/components/finsh/finsh_node.o
                0x000000007002b4a8                global_node_table
 COMMON         0x000000007002b5e8       0xc4 build/kernel/components/finsh/finsh_var.o
                0x000000007002b5e8                global_sysvar_list
                0x000000007002b5ec                global_variable
 COMMON         0x000000007002b6ac      0x188 build/kernel/components/finsh/finsh_vm.o
                0x000000007002b6ac                text_segment
                0x000000007002b72c                finsh_vm_stack
                0x000000007002b82c                finsh_pc
                0x000000007002b830                finsh_sp
 COMMON         0x000000007002b834        0x8 build/kernel/components/pthreads/clock_time.o
                0x000000007002b834                _timevalue
 COMMON         0x000000007002b83c       0x40 build/kernel/components/pthreads/pthread_tls.o
                0x000000007002b83c                _thread_keys
                0x000000007002b87c                . = ALIGN (0x4)
                0x000000007002b87c                . = ALIGN (0x4)
                0x000000007002b87c                __bss_end = .

.stab
 *(.stab)

.stabstr
 *(.stabstr)

.stab.excl
 *(.stab.excl)

.stab.exclstr
 *(.stab.exclstr)

.stab.index
 *(.stab.index)

.stab.indexstr
 *(.stab.indexstr)

.comment        0x0000000000000000       0x1f
 *(.comment)
 .comment       0x0000000000000000       0x1f build/bsp/applications/application.o
                                         0x20 (size before relaxing)
 .comment       0x0000000000000000       0x20 build/bsp/applications/startup.o
 .comment       0x0000000000000000       0x20 build/bsp/drivers/board.o
 .comment       0x0000000000000000       0x20 build/bsp/drivers/serial.o
 .comment       0x0000000000000000       0x20 build/kernel/src/clock.o
 .comment       0x0000000000000000       0x20 build/kernel/src/components.o
 .comment       0x0000000000000000       0x20 build/kernel/src/device.o
 .comment       0x0000000000000000       0x20 build/kernel/src/idle.o
 .comment       0x0000000000000000       0x20 build/kernel/src/ipc.o
 .comment       0x0000000000000000       0x20 build/kernel/src/irq.o
 .comment       0x0000000000000000       0x20 build/kernel/src/kservice.o
 .comment       0x0000000000000000       0x20 build/kernel/src/mem.o
 .comment       0x0000000000000000       0x20 build/kernel/src/object.o
 .comment       0x0000000000000000       0x20 build/kernel/src/scheduler.o
 .comment       0x0000000000000000       0x20 build/kernel/src/thread.o
 .comment       0x0000000000000000       0x20 build/kernel/src/timer.o
 .comment       0x0000000000000000       0x20 build/kernel/libcpu/arm/realview-a8-vmm/cpu.o
 .comment       0x0000000000000000       0x20 build/kernel/libcpu/arm/realview-a8-vmm/gic.o
 .comment       0x0000000000000000       0x20 build/kernel/libcpu/arm/realview-a8-vmm/interrupt.o
 .comment       0x0000000000000000       0x20 build/kernel/libcpu/arm/realview-a8-vmm/stack.o
 .comment       0x0000000000000000       0x20 build/kernel/libcpu/arm/realview-a8-vmm/trap.o
 .comment       0x0000000000000000       0x20 build/kernel/components/finsh/shell.o
 .comment       0x0000000000000000       0x20 build/kernel/components/finsh/symbol.o
 .comment       0x0000000000000000       0x20 build/kernel/components/finsh/cmd.o
 .comment       0x0000000000000000       0x20 build/kernel/components/finsh/msh_cmd.o
 .comment       0x0000000000000000       0x20 build/kernel/components/finsh/msh.o
 .comment       0x0000000000000000       0x20 build/kernel/components/finsh/finsh_compiler.o
 .comment       0x0000000000000000       0x20 build/kernel/components/finsh/finsh_error.o
 .comment       0x0000000000000000       0x20 build/kernel/components/finsh/finsh_heap.o
 .comment       0x0000000000000000       0x20 build/kernel/components/finsh/finsh_init.o
 .comment       0x0000000000000000       0x20 build/kernel/components/finsh/finsh_node.o
 .comment       0x0000000000000000       0x20 build/kernel/components/finsh/finsh_ops.o
 .comment       0x0000000000000000       0x20 build/kernel/components/finsh/finsh_parser.o
 .comment       0x0000000000000000       0x20 build/kernel/components/finsh/finsh_var.o
 .comment       0x0000000000000000       0x20 build/kernel/components/finsh/finsh_vm.o
 .comment       0x0000000000000000       0x20 build/kernel/components/finsh/finsh_token.o
 .comment       0x0000000000000000       0x20 build/kernel/components/pthreads/clock_time.o
 .comment       0x0000000000000000       0x20 build/kernel/components/pthreads/mqueue.o
 .comment       0x0000000000000000       0x20 build/kernel/components/pthreads/pthread.o
 .comment       0x0000000000000000       0x20 build/kernel/components/pthreads/pthread_attr.o
 .comment       0x0000000000000000       0x20 build/kernel/components/pthreads/pthread_tls.o
 .comment       0x0000000000000000       0x20 build/kernel/components/pthreads/semaphore.o
 .comment       0x0000000000000000       0x20 build/kernel/components/libc/newlib/libc.o
 .comment       0x0000000000000000       0x20 build/kernel/components/libc/newlib/syscalls.o
 .comment       0x0000000000000000       0x20 build/kernel/components/utilities/logtrace/log_trace.o
 .comment       0x0000000000000000       0x20 build/kernel/components/drivers/src/completion.o
 .comment       0x0000000000000000       0x20 build/kernel/components/drivers/src/dataqueue.o
 .comment       0x0000000000000000       0x20 build/kernel/components/drivers/serial/serial.o
 .comment       0x0000000000000000       0x20 /usr/lib/gcc/arm-none-eabi/4.8.2/../../../arm-none-eabi/lib/armv7-ar/thumb/softfp/libc.a(lib_a-atoi.o)
 .comment       0x0000000000000000       0x20 /usr/lib/gcc/arm-none-eabi/4.8.2/../../../arm-none-eabi/lib/armv7-ar/thumb/softfp/libc.a(lib_a-impure.o)
 .comment       0x0000000000000000       0x20 /usr/lib/gcc/arm-none-eabi/4.8.2/../../../arm-none-eabi/lib/armv7-ar/thumb/softfp/libc.a(lib_a-memcpy-stub.o)
 .comment       0x0000000000000000       0x20 /usr/lib/gcc/arm-none-eabi/4.8.2/../../../arm-none-eabi/lib/armv7-ar/thumb/softfp/libc.a(lib_a-memset.o)
 .comment       0x0000000000000000       0x20 /usr/lib/gcc/arm-none-eabi/4.8.2/../../../arm-none-eabi/lib/armv7-ar/thumb/softfp/libc.a(lib_a-putenv.o)
 .comment       0x0000000000000000       0x20 /usr/lib/gcc/arm-none-eabi/4.8.2/../../../arm-none-eabi/lib/armv7-ar/thumb/softfp/libc.a(lib_a-putenv_r.o)
 .comment       0x0000000000000000       0x20 /usr/lib/gcc/arm-none-eabi/4.8.2/../../../arm-none-eabi/lib/armv7-ar/thumb/softfp/libc.a(lib_a-setenv_r.o)
 .comment       0x0000000000000000       0x20 /usr/lib/gcc/arm-none-eabi/4.8.2/../../../arm-none-eabi/lib/armv7-ar/thumb/softfp/libc.a(lib_a-strchr.o)
 .comment       0x0000000000000000       0x20 /usr/lib/gcc/arm-none-eabi/4.8.2/../../../arm-none-eabi/lib/armv7-ar/thumb/softfp/libc.a(lib_a-strdup_r.o)
 .comment       0x0000000000000000       0x20 /usr/lib/gcc/arm-none-eabi/4.8.2/../../../arm-none-eabi/lib/armv7-ar/thumb/softfp/libc.a(lib_a-strlen.o)
 .comment       0x0000000000000000       0x20 /usr/lib/gcc/arm-none-eabi/4.8.2/../../../arm-none-eabi/lib/armv7-ar/thumb/softfp/libc.a(lib_a-strncmp.o)
 .comment       0x0000000000000000       0x20 /usr/lib/gcc/arm-none-eabi/4.8.2/../../../arm-none-eabi/lib/armv7-ar/thumb/softfp/libc.a(lib_a-strncpy.o)
 .comment       0x0000000000000000       0x20 /usr/lib/gcc/arm-none-eabi/4.8.2/../../../arm-none-eabi/lib/armv7-ar/thumb/softfp/libc.a(lib_a-strtol.o)
 .comment       0x0000000000000000       0x20 /usr/lib/gcc/arm-none-eabi/4.8.2/../../../arm-none-eabi/lib/armv7-ar/thumb/softfp/libc.a(lib_a-tzset.o)
 .comment       0x0000000000000000       0x20 /usr/lib/gcc/arm-none-eabi/4.8.2/../../../arm-none-eabi/lib/armv7-ar/thumb/softfp/libc.a(lib_a-tzset_r.o)
 .comment       0x0000000000000000       0x20 /usr/lib/gcc/arm-none-eabi/4.8.2/../../../arm-none-eabi/lib/armv7-ar/thumb/softfp/libc.a(lib_a-tzvars.o)
 .comment       0x0000000000000000       0x20 /usr/lib/gcc/arm-none-eabi/4.8.2/../../../arm-none-eabi/lib/armv7-ar/thumb/softfp/libc.a(lib_a-ctype_.o)
 .comment       0x0000000000000000       0x20 /usr/lib/gcc/arm-none-eabi/4.8.2/../../../arm-none-eabi/lib/armv7-ar/thumb/softfp/libc.a(lib_a-environ.o)
 .comment       0x0000000000000000       0x20 /usr/lib/gcc/arm-none-eabi/4.8.2/../../../arm-none-eabi/lib/armv7-ar/thumb/softfp/libc.a(lib_a-envlock.o)
 .comment       0x0000000000000000       0x20 /usr/lib/gcc/arm-none-eabi/4.8.2/../../../arm-none-eabi/lib/armv7-ar/thumb/softfp/libc.a(lib_a-errno.o)
 .comment       0x0000000000000000       0x20 /usr/lib/gcc/arm-none-eabi/4.8.2/../../../arm-none-eabi/lib/armv7-ar/thumb/softfp/libc.a(lib_a-getenv_r.o)
 .comment       0x0000000000000000       0x20 /usr/lib/gcc/arm-none-eabi/4.8.2/../../../arm-none-eabi/lib/armv7-ar/thumb/softfp/libc.a(lib_a-gettzinfo.o)
 .comment       0x0000000000000000       0x20 /usr/lib/gcc/arm-none-eabi/4.8.2/../../../arm-none-eabi/lib/armv7-ar/thumb/softfp/libc.a(lib_a-malloc.o)
 .comment       0x0000000000000000       0x20 /usr/lib/gcc/arm-none-eabi/4.8.2/../../../arm-none-eabi/lib/armv7-ar/thumb/softfp/libc.a(lib_a-mktm_r.o)
 .comment       0x0000000000000000       0x20 /usr/lib/gcc/arm-none-eabi/4.8.2/../../../arm-none-eabi/lib/armv7-ar/thumb/softfp/libc.a(lib_a-siscanf.o)
 .comment       0x0000000000000000       0x20 /usr/lib/gcc/arm-none-eabi/4.8.2/../../../arm-none-eabi/lib/armv7-ar/thumb/softfp/libc.a(lib_a-stdio.o)
 .comment       0x0000000000000000       0x20 /usr/lib/gcc/arm-none-eabi/4.8.2/../../../arm-none-eabi/lib/armv7-ar/thumb/softfp/libc.a(lib_a-strcpy.o)
 .comment       0x0000000000000000       0x20 /usr/lib/gcc/arm-none-eabi/4.8.2/../../../arm-none-eabi/lib/armv7-ar/thumb/softfp/libc.a(lib_a-strtoul.o)
 .comment       0x0000000000000000       0x20 /usr/lib/gcc/arm-none-eabi/4.8.2/../../../arm-none-eabi/lib/armv7-ar/thumb/softfp/libc.a(lib_a-svfiscanf.o)
 .comment       0x0000000000000000       0x20 /usr/lib/gcc/arm-none-eabi/4.8.2/../../../arm-none-eabi/lib/armv7-ar/thumb/softfp/libc.a(lib_a-tzlock.o)
 .comment       0x0000000000000000       0x20 /usr/lib/gcc/arm-none-eabi/4.8.2/../../../arm-none-eabi/lib/armv7-ar/thumb/softfp/libc.a(lib_a-ungetc.o)
 .comment       0x0000000000000000       0x20 /usr/lib/gcc/arm-none-eabi/4.8.2/../../../arm-none-eabi/lib/armv7-ar/thumb/softfp/libc.a(lib_a-iswspace.o)
 .comment       0x0000000000000000       0x20 /usr/lib/gcc/arm-none-eabi/4.8.2/../../../arm-none-eabi/lib/armv7-ar/thumb/softfp/libc.a(lib_a-locale.o)
 .comment       0x0000000000000000       0x20 /usr/lib/gcc/arm-none-eabi/4.8.2/../../../arm-none-eabi/lib/armv7-ar/thumb/softfp/libc.a(lib_a-mbrtowc.o)
 .comment       0x0000000000000000       0x20 /usr/lib/gcc/arm-none-eabi/4.8.2/../../../arm-none-eabi/lib/armv7-ar/thumb/softfp/libc.a(lib_a-mbtowc_r.o)
 .comment       0x0000000000000000       0x20 /usr/lib/gcc/arm-none-eabi/4.8.2/../../../arm-none-eabi/lib/armv7-ar/thumb/softfp/libc.a(lib_a-sccl.o)
 .comment       0x0000000000000000       0x20 /usr/lib/gcc/arm-none-eabi/4.8.2/../../../arm-none-eabi/lib/armv7-ar/thumb/softfp/libc.a(lib_a-strtoll_r.o)
 .comment       0x0000000000000000       0x20 /usr/lib/gcc/arm-none-eabi/4.8.2/../../../arm-none-eabi/lib/armv7-ar/thumb/softfp/libc.a(lib_a-strtoull_r.o)
 .comment       0x0000000000000000       0x20 /usr/lib/gcc/arm-none-eabi/4.8.2/armv7-ar/thumb/softfp/libgcc.a(bpabi.o)
 .comment       0x0000000000000000       0x20 /usr/lib/gcc/arm-none-eabi/4.8.2/armv7-ar/thumb/softfp/libgcc.a(_divdi3.o)
 .comment       0x0000000000000000       0x20 /usr/lib/gcc/arm-none-eabi/4.8.2/armv7-ar/thumb/softfp/libgcc.a(_udivdi3.o)
                0x0000000000000020                _end = .
OUTPUT(rtthread-realview.elf elf32-littlearm)

.ARM.attributes
                0x0000000000000000       0x2d
 .ARM.attributes
                0x0000000000000000       0x2f build/bsp/applications/application.o
 .ARM.attributes
                0x000000000000002f       0x2f build/bsp/applications/startup.o
 .ARM.attributes
                0x000000000000005e       0x2f build/bsp/drivers/board.o
 .ARM.attributes
                0x000000000000008d       0x2f build/bsp/drivers/serial.o
 .ARM.attributes
                0x00000000000000bc       0x2f build/kernel/src/clock.o
 .ARM.attributes
                0x00000000000000eb       0x2f build/kernel/src/components.o
 .ARM.attributes
                0x000000000000011a       0x2f build/kernel/src/device.o
 .ARM.attributes
                0x0000000000000149       0x2f build/kernel/src/idle.o
 .ARM.attributes
                0x0000000000000178       0x2f build/kernel/src/ipc.o
 .ARM.attributes
                0x00000000000001a7       0x2f build/kernel/src/irq.o
 .ARM.attributes
                0x00000000000001d6       0x2f build/kernel/src/kservice.o
 .ARM.attributes
                0x0000000000000205       0x2f build/kernel/src/mem.o
 .ARM.attributes
                0x0000000000000234       0x2f build/kernel/src/object.o
 .ARM.attributes
                0x0000000000000263       0x2f build/kernel/src/scheduler.o
 .ARM.attributes
                0x0000000000000292       0x2f build/kernel/src/thread.o
 .ARM.attributes
                0x00000000000002c1       0x2f build/kernel/src/timer.o
 .ARM.attributes
                0x00000000000002f0       0x2f build/kernel/libcpu/arm/realview-a8-vmm/cpu.o
 .ARM.attributes
                0x000000000000031f       0x2f build/kernel/libcpu/arm/realview-a8-vmm/gic.o
 .ARM.attributes
                0x000000000000034e       0x2f build/kernel/libcpu/arm/realview-a8-vmm/interrupt.o
 .ARM.attributes
                0x000000000000037d       0x2f build/kernel/libcpu/arm/realview-a8-vmm/stack.o
 .ARM.attributes
                0x00000000000003ac       0x2f build/kernel/libcpu/arm/realview-a8-vmm/trap.o
 .ARM.attributes
                0x00000000000003db       0x1f build/kernel/libcpu/arm/realview-a8-vmm/context_gcc.o
 .ARM.attributes
                0x00000000000003fa       0x1f build/kernel/libcpu/arm/realview-a8-vmm/cp15_gcc.o
 .ARM.attributes
                0x0000000000000419       0x1f build/kernel/libcpu/arm/realview-a8-vmm/start_gcc.o
 .ARM.attributes
                0x0000000000000438       0x1f build/kernel/libcpu/arm/realview-a8-vmm/vector_gcc.o
 .ARM.attributes
                0x0000000000000457       0x2f build/kernel/components/finsh/shell.o
 .ARM.attributes
                0x0000000000000486       0x2f build/kernel/components/finsh/symbol.o
 .ARM.attributes
                0x00000000000004b5       0x2f build/kernel/components/finsh/cmd.o
 .ARM.attributes
                0x00000000000004e4       0x2f build/kernel/components/finsh/msh_cmd.o
 .ARM.attributes
                0x0000000000000513       0x2f build/kernel/components/finsh/msh.o
 .ARM.attributes
                0x0000000000000542       0x2f build/kernel/components/finsh/finsh_compiler.o
 .ARM.attributes
                0x0000000000000571       0x2f build/kernel/components/finsh/finsh_error.o
 .ARM.attributes
                0x00000000000005a0       0x2f build/kernel/components/finsh/finsh_heap.o
 .ARM.attributes
                0x00000000000005cf       0x2f build/kernel/components/finsh/finsh_init.o
 .ARM.attributes
                0x00000000000005fe       0x2f build/kernel/components/finsh/finsh_node.o
 .ARM.attributes
                0x000000000000062d       0x2f build/kernel/components/finsh/finsh_ops.o
 .ARM.attributes
                0x000000000000065c       0x2f build/kernel/components/finsh/finsh_parser.o
 .ARM.attributes
                0x000000000000068b       0x2f build/kernel/components/finsh/finsh_var.o
 .ARM.attributes
                0x00000000000006ba       0x2f build/kernel/components/finsh/finsh_vm.o
 .ARM.attributes
                0x00000000000006e9       0x2f build/kernel/components/finsh/finsh_token.o
 .ARM.attributes
                0x0000000000000718       0x2f build/kernel/components/pthreads/clock_time.o
 .ARM.attributes
                0x0000000000000747       0x2f build/kernel/components/pthreads/mqueue.o
 .ARM.attributes
                0x0000000000000776       0x2f build/kernel/components/pthreads/pthread.o
 .ARM.attributes
                0x00000000000007a5       0x2f build/kernel/components/pthreads/pthread_attr.o
 .ARM.attributes
                0x00000000000007d4       0x2f build/kernel/components/pthreads/pthread_tls.o
 .ARM.attributes
                0x0000000000000803       0x2f build/kernel/components/pthreads/semaphore.o
 .ARM.attributes
                0x0000000000000832       0x2f build/kernel/components/libc/newlib/libc.o
 .ARM.attributes
                0x0000000000000861       0x2f build/kernel/components/libc/newlib/syscalls.o
 .ARM.attributes
                0x0000000000000890       0x2f build/kernel/components/utilities/logtrace/log_trace.o
 .ARM.attributes
                0x00000000000008bf       0x2f build/kernel/components/drivers/src/completion.o
 .ARM.attributes
                0x00000000000008ee       0x2f build/kernel/components/drivers/src/dataqueue.o
 .ARM.attributes
                0x000000000000091d       0x2f build/kernel/components/drivers/serial/serial.o
 .ARM.attributes
                0x000000000000094c       0x2d /usr/lib/gcc/arm-none-eabi/4.8.2/../../../arm-none-eabi/lib/armv7-ar/thumb/softfp/libc.a(lib_a-atoi.o)
 .ARM.attributes
                0x0000000000000979       0x2d /usr/lib/gcc/arm-none-eabi/4.8.2/../../../arm-none-eabi/lib/armv7-ar/thumb/softfp/libc.a(lib_a-impure.o)
 .ARM.attributes
                0x00000000000009a6       0x2d /usr/lib/gcc/arm-none-eabi/4.8.2/../../../arm-none-eabi/lib/armv7-ar/thumb/softfp/libc.a(lib_a-memcpy-stub.o)
 .ARM.attributes
                0x00000000000009d3       0x2d /usr/lib/gcc/arm-none-eabi/4.8.2/../../../arm-none-eabi/lib/armv7-ar/thumb/softfp/libc.a(lib_a-memset.o)
 .ARM.attributes
                0x0000000000000a00       0x2d /usr/lib/gcc/arm-none-eabi/4.8.2/../../../arm-none-eabi/lib/armv7-ar/thumb/softfp/libc.a(lib_a-putenv.o)
 .ARM.attributes
                0x0000000000000a2d       0x2d /usr/lib/gcc/arm-none-eabi/4.8.2/../../../arm-none-eabi/lib/armv7-ar/thumb/softfp/libc.a(lib_a-putenv_r.o)
 .ARM.attributes
                0x0000000000000a5a       0x2d /usr/lib/gcc/arm-none-eabi/4.8.2/../../../arm-none-eabi/lib/armv7-ar/thumb/softfp/libc.a(lib_a-setenv_r.o)
 .ARM.attributes
                0x0000000000000a87       0x2d /usr/lib/gcc/arm-none-eabi/4.8.2/../../../arm-none-eabi/lib/armv7-ar/thumb/softfp/libc.a(lib_a-strchr.o)
 .ARM.attributes
                0x0000000000000ab4       0x19 /usr/lib/gcc/arm-none-eabi/4.8.2/../../../arm-none-eabi/lib/armv7-ar/thumb/softfp/libc.a(lib_a-strcmp.o)
 .ARM.attributes
                0x0000000000000acd       0x2d /usr/lib/gcc/arm-none-eabi/4.8.2/../../../arm-none-eabi/lib/armv7-ar/thumb/softfp/libc.a(lib_a-strdup_r.o)
 .ARM.attributes
                0x0000000000000afa       0x2d /usr/lib/gcc/arm-none-eabi/4.8.2/../../../arm-none-eabi/lib/armv7-ar/thumb/softfp/libc.a(lib_a-strlen.o)
 .ARM.attributes
                0x0000000000000b27       0x2d /usr/lib/gcc/arm-none-eabi/4.8.2/../../../arm-none-eabi/lib/armv7-ar/thumb/softfp/libc.a(lib_a-strncmp.o)
 .ARM.attributes
                0x0000000000000b54       0x2d /usr/lib/gcc/arm-none-eabi/4.8.2/../../../arm-none-eabi/lib/armv7-ar/thumb/softfp/libc.a(lib_a-strncpy.o)
 .ARM.attributes
                0x0000000000000b81       0x2d /usr/lib/gcc/arm-none-eabi/4.8.2/../../../arm-none-eabi/lib/armv7-ar/thumb/softfp/libc.a(lib_a-strtol.o)
 .ARM.attributes
                0x0000000000000bae       0x2d /usr/lib/gcc/arm-none-eabi/4.8.2/../../../arm-none-eabi/lib/armv7-ar/thumb/softfp/libc.a(lib_a-tzset.o)
 .ARM.attributes
                0x0000000000000bdb       0x2d /usr/lib/gcc/arm-none-eabi/4.8.2/../../../arm-none-eabi/lib/armv7-ar/thumb/softfp/libc.a(lib_a-tzset_r.o)
 .ARM.attributes
                0x0000000000000c08       0x2d /usr/lib/gcc/arm-none-eabi/4.8.2/../../../arm-none-eabi/lib/armv7-ar/thumb/softfp/libc.a(lib_a-tzvars.o)
 .ARM.attributes
                0x0000000000000c35       0x2d /usr/lib/gcc/arm-none-eabi/4.8.2/../../../arm-none-eabi/lib/armv7-ar/thumb/softfp/libc.a(lib_a-ctype_.o)
 .ARM.attributes
                0x0000000000000c62       0x2d /usr/lib/gcc/arm-none-eabi/4.8.2/../../../arm-none-eabi/lib/armv7-ar/thumb/softfp/libc.a(lib_a-environ.o)
 .ARM.attributes
                0x0000000000000c8f       0x2d /usr/lib/gcc/arm-none-eabi/4.8.2/../../../arm-none-eabi/lib/armv7-ar/thumb/softfp/libc.a(lib_a-envlock.o)
 .ARM.attributes
                0x0000000000000cbc       0x2d /usr/lib/gcc/arm-none-eabi/4.8.2/../../../arm-none-eabi/lib/armv7-ar/thumb/softfp/libc.a(lib_a-errno.o)
 .ARM.attributes
                0x0000000000000ce9       0x2d /usr/lib/gcc/arm-none-eabi/4.8.2/../../../arm-none-eabi/lib/armv7-ar/thumb/softfp/libc.a(lib_a-getenv_r.o)
 .ARM.attributes
                0x0000000000000d16       0x2d /usr/lib/gcc/arm-none-eabi/4.8.2/../../../arm-none-eabi/lib/armv7-ar/thumb/softfp/libc.a(lib_a-gettzinfo.o)
 .ARM.attributes
                0x0000000000000d43       0x2d /usr/lib/gcc/arm-none-eabi/4.8.2/../../../arm-none-eabi/lib/armv7-ar/thumb/softfp/libc.a(lib_a-malloc.o)
 .ARM.attributes
                0x0000000000000d70       0x2d /usr/lib/gcc/arm-none-eabi/4.8.2/../../../arm-none-eabi/lib/armv7-ar/thumb/softfp/libc.a(lib_a-mktm_r.o)
 .ARM.attributes
                0x0000000000000d9d       0x2d /usr/lib/gcc/arm-none-eabi/4.8.2/../../../arm-none-eabi/lib/armv7-ar/thumb/softfp/libc.a(lib_a-siscanf.o)
 .ARM.attributes
                0x0000000000000dca       0x2d /usr/lib/gcc/arm-none-eabi/4.8.2/../../../arm-none-eabi/lib/armv7-ar/thumb/softfp/libc.a(lib_a-stdio.o)
 .ARM.attributes
                0x0000000000000df7       0x2d /usr/lib/gcc/arm-none-eabi/4.8.2/../../../arm-none-eabi/lib/armv7-ar/thumb/softfp/libc.a(lib_a-strcpy.o)
 .ARM.attributes
                0x0000000000000e24       0x2d /usr/lib/gcc/arm-none-eabi/4.8.2/../../../arm-none-eabi/lib/armv7-ar/thumb/softfp/libc.a(lib_a-strtoul.o)
 .ARM.attributes
                0x0000000000000e51       0x2d /usr/lib/gcc/arm-none-eabi/4.8.2/../../../arm-none-eabi/lib/armv7-ar/thumb/softfp/libc.a(lib_a-svfiscanf.o)
 .ARM.attributes
                0x0000000000000e7e       0x2d /usr/lib/gcc/arm-none-eabi/4.8.2/../../../arm-none-eabi/lib/armv7-ar/thumb/softfp/libc.a(lib_a-tzlock.o)
 .ARM.attributes
                0x0000000000000eab       0x2d /usr/lib/gcc/arm-none-eabi/4.8.2/../../../arm-none-eabi/lib/armv7-ar/thumb/softfp/libc.a(lib_a-ungetc.o)
 .ARM.attributes
                0x0000000000000ed8       0x2d /usr/lib/gcc/arm-none-eabi/4.8.2/../../../arm-none-eabi/lib/armv7-ar/thumb/softfp/libc.a(lib_a-iswspace.o)
 .ARM.attributes
                0x0000000000000f05       0x2d /usr/lib/gcc/arm-none-eabi/4.8.2/../../../arm-none-eabi/lib/armv7-ar/thumb/softfp/libc.a(lib_a-locale.o)
 .ARM.attributes
                0x0000000000000f32       0x2d /usr/lib/gcc/arm-none-eabi/4.8.2/../../../arm-none-eabi/lib/armv7-ar/thumb/softfp/libc.a(lib_a-mbrtowc.o)
 .ARM.attributes
                0x0000000000000f5f       0x2d /usr/lib/gcc/arm-none-eabi/4.8.2/../../../arm-none-eabi/lib/armv7-ar/thumb/softfp/libc.a(lib_a-mbtowc_r.o)
 .ARM.attributes
                0x0000000000000f8c       0x2d /usr/lib/gcc/arm-none-eabi/4.8.2/../../../arm-none-eabi/lib/armv7-ar/thumb/softfp/libc.a(lib_a-sccl.o)
 .ARM.attributes
                0x0000000000000fb9       0x2d /usr/lib/gcc/arm-none-eabi/4.8.2/../../../arm-none-eabi/lib/armv7-ar/thumb/softfp/libc.a(lib_a-strtoll_r.o)
 .ARM.attributes
                0x0000000000000fe6       0x2d /usr/lib/gcc/arm-none-eabi/4.8.2/../../../arm-none-eabi/lib/armv7-ar/thumb/softfp/libc.a(lib_a-strtoull_r.o)
 .ARM.attributes
                0x0000000000001013       0x1b /usr/lib/gcc/arm-none-eabi/4.8.2/armv7-ar/thumb/softfp/libgcc.a(_udivsi3.o)
 .ARM.attributes
                0x000000000000102e       0x1b /usr/lib/gcc/arm-none-eabi/4.8.2/armv7-ar/thumb/softfp/libgcc.a(_divsi3.o)
 .ARM.attributes
                0x0000000000001049       0x1b /usr/lib/gcc/arm-none-eabi/4.8.2/armv7-ar/thumb/softfp/libgcc.a(_dvmd_tls.o)
 .ARM.attributes
                0x0000000000001064       0x1b /usr/lib/gcc/arm-none-eabi/4.8.2/armv7-ar/thumb/softfp/libgcc.a(_aeabi_uldivmod.o)
 .ARM.attributes
                0x000000000000107f       0x2d /usr/lib/gcc/arm-none-eabi/4.8.2/armv7-ar/thumb/softfp/libgcc.a(bpabi.o)
 .ARM.attributes
                0x00000000000010ac       0x2d /usr/lib/gcc/arm-none-eabi/4.8.2/armv7-ar/thumb/softfp/libgcc.a(_divdi3.o)
 .ARM.attributes
                0x00000000000010d9       0x2d /usr/lib/gcc/arm-none-eabi/4.8.2/armv7-ar/thumb/softfp/libgcc.a(_udivdi3.o)

.debug_info     0x0000000000000000    0x28916
 .debug_info    0x0000000000000000      0x3b7 build/bsp/applications/application.o
 .debug_info    0x00000000000003b7       0xa2 build/bsp/applications/startup.o
 .debug_info    0x0000000000000459      0x144 build/bsp/drivers/board.o
 .debug_info    0x000000000000059d      0x8c2 build/bsp/drivers/serial.o
 .debug_info    0x0000000000000e5f      0x412 build/kernel/src/clock.o
 .debug_info    0x0000000000001271      0x15a build/kernel/src/components.o
 .debug_info    0x00000000000013cb      0x9c9 build/kernel/src/device.o
 .debug_info    0x0000000000001d94      0x571 build/kernel/src/idle.o
 .debug_info    0x0000000000002305     0x20b1 build/kernel/src/ipc.o
 .debug_info    0x00000000000043b6       0xfe build/kernel/src/irq.o
 .debug_info    0x00000000000044b4     0x1167 build/kernel/src/kservice.o
 .debug_info    0x000000000000561b      0x97d build/kernel/src/mem.o
 .debug_info    0x0000000000005f98      0x753 build/kernel/src/object.o
 .debug_info    0x00000000000066eb      0x732 build/kernel/src/scheduler.o
 .debug_info    0x0000000000006e1d      0xc76 build/kernel/src/thread.o
 .debug_info    0x0000000000007a93      0x95e build/kernel/src/timer.o
 .debug_info    0x00000000000083f1      0x126 build/kernel/libcpu/arm/realview-a8-vmm/cpu.o
 .debug_info    0x0000000000008517      0x98d build/kernel/libcpu/arm/realview-a8-vmm/gic.o
 .debug_info    0x0000000000008ea4      0x30b build/kernel/libcpu/arm/realview-a8-vmm/interrupt.o
 .debug_info    0x00000000000091af       0xea build/kernel/libcpu/arm/realview-a8-vmm/stack.o
 .debug_info    0x0000000000009299      0x3a7 build/kernel/libcpu/arm/realview-a8-vmm/trap.o
 .debug_info    0x0000000000009640       0xdb build/kernel/libcpu/arm/realview-a8-vmm/context_gcc.o
 .debug_info    0x000000000000971b       0xdc build/kernel/libcpu/arm/realview-a8-vmm/cp15_gcc.o
 .debug_info    0x00000000000097f7       0xd9 build/kernel/libcpu/arm/realview-a8-vmm/start_gcc.o
 .debug_info    0x00000000000098d0       0xde build/kernel/libcpu/arm/realview-a8-vmm/vector_gcc.o
 .debug_info    0x00000000000099ae      0xfeb build/kernel/components/finsh/shell.o
 .debug_info    0x000000000000a999      0x176 build/kernel/components/finsh/symbol.o
 .debug_info    0x000000000000ab0f     0x18a0 build/kernel/components/finsh/cmd.o
 .debug_info    0x000000000000c3af      0x2e1 build/kernel/components/finsh/msh_cmd.o
 .debug_info    0x000000000000c690      0x648 build/kernel/components/finsh/msh.o
 .debug_info    0x000000000000ccd8      0x58e build/kernel/components/finsh/finsh_compiler.o
 .debug_info    0x000000000000d266      0x151 build/kernel/components/finsh/finsh_error.o
 .debug_info    0x000000000000d3b7      0x409 build/kernel/components/finsh/finsh_heap.o
 .debug_info    0x000000000000d7c0      0x4a8 build/kernel/components/finsh/finsh_init.o
 .debug_info    0x000000000000dc68      0x4a3 build/kernel/components/finsh/finsh_node.o
 .debug_info    0x000000000000e10b      0x636 build/kernel/components/finsh/finsh_ops.o
 .debug_info    0x000000000000e741      0xc0f build/kernel/components/finsh/finsh_parser.o
 .debug_info    0x000000000000f350      0x3cc build/kernel/components/finsh/finsh_var.o
 .debug_info    0x000000000000f71c      0x2de build/kernel/components/finsh/finsh_vm.o
 .debug_info    0x000000000000f9fa      0x6d1 build/kernel/components/finsh/finsh_token.o
 .debug_info    0x00000000000100cb      0x66e build/kernel/components/pthreads/clock_time.o
 .debug_info    0x0000000000010739      0x92f build/kernel/components/pthreads/mqueue.o
 .debug_info    0x0000000000011068      0xdd6 build/kernel/components/pthreads/pthread.o
 .debug_info    0x0000000000011e3e      0x907 build/kernel/components/pthreads/pthread_attr.o
 .debug_info    0x0000000000012745      0x85e build/kernel/components/pthreads/pthread_tls.o
 .debug_info    0x0000000000012fa3      0x6b6 build/kernel/components/pthreads/semaphore.o
 .debug_info    0x0000000000013659       0xc2 build/kernel/components/libc/newlib/libc.o
 .debug_info    0x000000000001371b     0x1523 build/kernel/components/libc/newlib/syscalls.o
 .debug_info    0x0000000000014c3e      0xe03 build/kernel/components/utilities/logtrace/log_trace.o
 .debug_info    0x0000000000015a41      0x644 build/kernel/components/drivers/src/completion.o
 .debug_info    0x0000000000016085      0x8dc build/kernel/components/drivers/src/dataqueue.o
 .debug_info    0x0000000000016961     0x123d build/kernel/components/drivers/serial/serial.o
 .debug_info    0x0000000000017b9e      0x941 /usr/lib/gcc/arm-none-eabi/4.8.2/../../../arm-none-eabi/lib/armv7-ar/thumb/softfp/libc.a(lib_a-atoi.o)
 .debug_info    0x00000000000184df      0x894 /usr/lib/gcc/arm-none-eabi/4.8.2/../../../arm-none-eabi/lib/armv7-ar/thumb/softfp/libc.a(lib_a-impure.o)
 .debug_info    0x0000000000018d73      0x131 /usr/lib/gcc/arm-none-eabi/4.8.2/../../../arm-none-eabi/lib/armv7-ar/thumb/softfp/libc.a(lib_a-memcpy-stub.o)
 .debug_info    0x0000000000018ea4      0x117 /usr/lib/gcc/arm-none-eabi/4.8.2/../../../arm-none-eabi/lib/armv7-ar/thumb/softfp/libc.a(lib_a-memset.o)
 .debug_info    0x0000000000018fbb      0x8be /usr/lib/gcc/arm-none-eabi/4.8.2/../../../arm-none-eabi/lib/armv7-ar/thumb/softfp/libc.a(lib_a-putenv.o)
 .debug_info    0x0000000000019879      0x9b3 /usr/lib/gcc/arm-none-eabi/4.8.2/../../../arm-none-eabi/lib/armv7-ar/thumb/softfp/libc.a(lib_a-putenv_r.o)
 .debug_info    0x000000000001a22c      0xc90 /usr/lib/gcc/arm-none-eabi/4.8.2/../../../arm-none-eabi/lib/armv7-ar/thumb/softfp/libc.a(lib_a-setenv_r.o)
 .debug_info    0x000000000001aebc      0x116 /usr/lib/gcc/arm-none-eabi/4.8.2/../../../arm-none-eabi/lib/armv7-ar/thumb/softfp/libc.a(lib_a-strchr.o)
 .debug_info    0x000000000001afd2       0xbf /usr/lib/gcc/arm-none-eabi/4.8.2/../../../arm-none-eabi/lib/armv7-ar/thumb/softfp/libc.a(lib_a-strcmp.o)
 .debug_info    0x000000000001b091      0x95c /usr/lib/gcc/arm-none-eabi/4.8.2/../../../arm-none-eabi/lib/armv7-ar/thumb/softfp/libc.a(lib_a-strdup_r.o)
 .debug_info    0x000000000001b9ed       0xb5 /usr/lib/gcc/arm-none-eabi/4.8.2/../../../arm-none-eabi/lib/armv7-ar/thumb/softfp/libc.a(lib_a-strlen.o)
 .debug_info    0x000000000001baa2       0xf5 /usr/lib/gcc/arm-none-eabi/4.8.2/../../../arm-none-eabi/lib/armv7-ar/thumb/softfp/libc.a(lib_a-strncmp.o)
 .debug_info    0x000000000001bb97      0x128 /usr/lib/gcc/arm-none-eabi/4.8.2/../../../arm-none-eabi/lib/armv7-ar/thumb/softfp/libc.a(lib_a-strncpy.o)
 .debug_info    0x000000000001bcbf      0x9a9 /usr/lib/gcc/arm-none-eabi/4.8.2/../../../arm-none-eabi/lib/armv7-ar/thumb/softfp/libc.a(lib_a-strtol.o)
 .debug_info    0x000000000001c668      0x89a /usr/lib/gcc/arm-none-eabi/4.8.2/../../../arm-none-eabi/lib/armv7-ar/thumb/softfp/libc.a(lib_a-tzset.o)
 .debug_info    0x000000000001cf02      0xdbb /usr/lib/gcc/arm-none-eabi/4.8.2/../../../arm-none-eabi/lib/armv7-ar/thumb/softfp/libc.a(lib_a-tzset_r.o)
 .debug_info    0x000000000001dcbd       0xbb /usr/lib/gcc/arm-none-eabi/4.8.2/../../../arm-none-eabi/lib/armv7-ar/thumb/softfp/libc.a(lib_a-tzvars.o)
 .debug_info    0x000000000001dd78       0x6f /usr/lib/gcc/arm-none-eabi/4.8.2/../../../arm-none-eabi/lib/armv7-ar/thumb/softfp/libc.a(lib_a-ctype_.o)
 .debug_info    0x000000000001dde7       0x6a /usr/lib/gcc/arm-none-eabi/4.8.2/../../../arm-none-eabi/lib/armv7-ar/thumb/softfp/libc.a(lib_a-environ.o)
 .debug_info    0x000000000001de51      0x8b4 /usr/lib/gcc/arm-none-eabi/4.8.2/../../../arm-none-eabi/lib/armv7-ar/thumb/softfp/libc.a(lib_a-envlock.o)
 .debug_info    0x000000000001e705      0x889 /usr/lib/gcc/arm-none-eabi/4.8.2/../../../arm-none-eabi/lib/armv7-ar/thumb/softfp/libc.a(lib_a-errno.o)
 .debug_info    0x000000000001ef8e      0x9fd /usr/lib/gcc/arm-none-eabi/4.8.2/../../../arm-none-eabi/lib/armv7-ar/thumb/softfp/libc.a(lib_a-getenv_r.o)
 .debug_info    0x000000000001f98b      0x160 /usr/lib/gcc/arm-none-eabi/4.8.2/../../../arm-none-eabi/lib/armv7-ar/thumb/softfp/libc.a(lib_a-gettzinfo.o)
 .debug_info    0x000000000001faeb      0x915 /usr/lib/gcc/arm-none-eabi/4.8.2/../../../arm-none-eabi/lib/armv7-ar/thumb/softfp/libc.a(lib_a-malloc.o)
 .debug_info    0x0000000000020400      0x43c /usr/lib/gcc/arm-none-eabi/4.8.2/../../../arm-none-eabi/lib/armv7-ar/thumb/softfp/libc.a(lib_a-mktm_r.o)
 .debug_info    0x000000000002083c      0xa2b /usr/lib/gcc/arm-none-eabi/4.8.2/../../../arm-none-eabi/lib/armv7-ar/thumb/softfp/libc.a(lib_a-siscanf.o)
 .debug_info    0x0000000000021267      0xb8a /usr/lib/gcc/arm-none-eabi/4.8.2/../../../arm-none-eabi/lib/armv7-ar/thumb/softfp/libc.a(lib_a-stdio.o)
 .debug_info    0x0000000000021df1       0xbd /usr/lib/gcc/arm-none-eabi/4.8.2/../../../arm-none-eabi/lib/armv7-ar/thumb/softfp/libc.a(lib_a-strcpy.o)
 .debug_info    0x0000000000021eae      0x9a9 /usr/lib/gcc/arm-none-eabi/4.8.2/../../../arm-none-eabi/lib/armv7-ar/thumb/softfp/libc.a(lib_a-strtoul.o)
 .debug_info    0x0000000000022857     0x1199 /usr/lib/gcc/arm-none-eabi/4.8.2/../../../arm-none-eabi/lib/armv7-ar/thumb/softfp/libc.a(lib_a-svfiscanf.o)
 .debug_info    0x00000000000239f0       0xa8 /usr/lib/gcc/arm-none-eabi/4.8.2/../../../arm-none-eabi/lib/armv7-ar/thumb/softfp/libc.a(lib_a-tzlock.o)
 .debug_info    0x0000000000023a98      0xa92 /usr/lib/gcc/arm-none-eabi/4.8.2/../../../arm-none-eabi/lib/armv7-ar/thumb/softfp/libc.a(lib_a-ungetc.o)
 .debug_info    0x000000000002452a       0xc3 /usr/lib/gcc/arm-none-eabi/4.8.2/../../../arm-none-eabi/lib/armv7-ar/thumb/softfp/libc.a(lib_a-iswspace.o)
 .debug_info    0x00000000000245ed      0xbe5 /usr/lib/gcc/arm-none-eabi/4.8.2/../../../arm-none-eabi/lib/armv7-ar/thumb/softfp/libc.a(lib_a-locale.o)
 .debug_info    0x00000000000251d2      0xa8c /usr/lib/gcc/arm-none-eabi/4.8.2/../../../arm-none-eabi/lib/armv7-ar/thumb/softfp/libc.a(lib_a-mbrtowc.o)
 .debug_info    0x0000000000025c5e      0x9ee /usr/lib/gcc/arm-none-eabi/4.8.2/../../../arm-none-eabi/lib/armv7-ar/thumb/softfp/libc.a(lib_a-mbtowc_r.o)
 .debug_info    0x000000000002664c       0xfb /usr/lib/gcc/arm-none-eabi/4.8.2/../../../arm-none-eabi/lib/armv7-ar/thumb/softfp/libc.a(lib_a-sccl.o)
 .debug_info    0x0000000000026747      0x939 /usr/lib/gcc/arm-none-eabi/4.8.2/../../../arm-none-eabi/lib/armv7-ar/thumb/softfp/libc.a(lib_a-strtoll_r.o)
 .debug_info    0x0000000000027080      0x939 /usr/lib/gcc/arm-none-eabi/4.8.2/../../../arm-none-eabi/lib/armv7-ar/thumb/softfp/libc.a(lib_a-strtoull_r.o)
 .debug_info    0x00000000000279b9       0xb3 /usr/lib/gcc/arm-none-eabi/4.8.2/armv7-ar/thumb/softfp/libgcc.a(_udivsi3.o)
 .debug_info    0x0000000000027a6c       0xb3 /usr/lib/gcc/arm-none-eabi/4.8.2/armv7-ar/thumb/softfp/libgcc.a(_divsi3.o)
 .debug_info    0x0000000000027b1f       0xb3 /usr/lib/gcc/arm-none-eabi/4.8.2/armv7-ar/thumb/softfp/libgcc.a(_dvmd_tls.o)
 .debug_info    0x0000000000027bd2       0xaf /usr/lib/gcc/arm-none-eabi/4.8.2/armv7-ar/thumb/softfp/libgcc.a(_aeabi_uldivmod.o)
 .debug_info    0x0000000000027c81      0x164 /usr/lib/gcc/arm-none-eabi/4.8.2/armv7-ar/thumb/softfp/libgcc.a(bpabi.o)
 .debug_info    0x0000000000027de5      0x5b9 /usr/lib/gcc/arm-none-eabi/4.8.2/armv7-ar/thumb/softfp/libgcc.a(_divdi3.o)
 .debug_info    0x000000000002839e      0x578 /usr/lib/gcc/arm-none-eabi/4.8.2/armv7-ar/thumb/softfp/libgcc.a(_udivdi3.o)

.debug_abbrev   0x0000000000000000     0x8c37
 .debug_abbrev  0x0000000000000000       0xf3 build/bsp/applications/application.o
 .debug_abbrev  0x00000000000000f3       0x6d build/bsp/applications/startup.o
 .debug_abbrev  0x0000000000000160       0xea build/bsp/drivers/board.o
 .debug_abbrev  0x000000000000024a      0x20b build/bsp/drivers/serial.o
 .debug_abbrev  0x0000000000000455      0x138 build/kernel/src/clock.o
 .debug_abbrev  0x000000000000058d       0xa2 build/kernel/src/components.o
 .debug_abbrev  0x000000000000062f      0x1be build/kernel/src/device.o
 .debug_abbrev  0x00000000000007ed      0x1d7 build/kernel/src/idle.o
 .debug_abbrev  0x00000000000009c4      0x224 build/kernel/src/ipc.o
 .debug_abbrev  0x0000000000000be8       0x92 build/kernel/src/irq.o
 .debug_abbrev  0x0000000000000c7a      0x2bd build/kernel/src/kservice.o
 .debug_abbrev  0x0000000000000f37      0x251 build/kernel/src/mem.o
 .debug_abbrev  0x0000000000001188      0x1f7 build/kernel/src/object.o
 .debug_abbrev  0x000000000000137f      0x1df build/kernel/src/scheduler.o
 .debug_abbrev  0x000000000000155e      0x228 build/kernel/src/thread.o
 .debug_abbrev  0x0000000000001786      0x2a0 build/kernel/src/timer.o
 .debug_abbrev  0x0000000000001a26       0xc0 build/kernel/libcpu/arm/realview-a8-vmm/cpu.o
 .debug_abbrev  0x0000000000001ae6      0x1c3 build/kernel/libcpu/arm/realview-a8-vmm/gic.o
 .debug_abbrev  0x0000000000001ca9      0x132 build/kernel/libcpu/arm/realview-a8-vmm/interrupt.o
 .debug_abbrev  0x0000000000001ddb       0x7f build/kernel/libcpu/arm/realview-a8-vmm/stack.o
 .debug_abbrev  0x0000000000001e5a       0xf3 build/kernel/libcpu/arm/realview-a8-vmm/trap.o
 .debug_abbrev  0x0000000000001f4d       0x12 build/kernel/libcpu/arm/realview-a8-vmm/context_gcc.o
 .debug_abbrev  0x0000000000001f5f       0x14 build/kernel/libcpu/arm/realview-a8-vmm/cp15_gcc.o
 .debug_abbrev  0x0000000000001f73       0x12 build/kernel/libcpu/arm/realview-a8-vmm/start_gcc.o
 .debug_abbrev  0x0000000000001f85       0x14 build/kernel/libcpu/arm/realview-a8-vmm/vector_gcc.o
 .debug_abbrev  0x0000000000001f99      0x347 build/kernel/components/finsh/shell.o
 .debug_abbrev  0x00000000000022e0       0x96 build/kernel/components/finsh/symbol.o
 .debug_abbrev  0x0000000000002376      0x2bb build/kernel/components/finsh/cmd.o
 .debug_abbrev  0x0000000000002631      0x101 build/kernel/components/finsh/msh_cmd.o
 .debug_abbrev  0x0000000000002732      0x266 build/kernel/components/finsh/msh.o
 .debug_abbrev  0x0000000000002998      0x22d build/kernel/components/finsh/finsh_compiler.o
 .debug_abbrev  0x0000000000002bc5       0xbe build/kernel/components/finsh/finsh_error.o
 .debug_abbrev  0x0000000000002c83      0x199 build/kernel/components/finsh/finsh_heap.o
 .debug_abbrev  0x0000000000002e1c      0x17b build/kernel/components/finsh/finsh_init.o
 .debug_abbrev  0x0000000000002f97      0x1b5 build/kernel/components/finsh/finsh_node.o
 .debug_abbrev  0x000000000000314c      0x15d build/kernel/components/finsh/finsh_ops.o
 .debug_abbrev  0x00000000000032a9      0x22f build/kernel/components/finsh/finsh_parser.o
 .debug_abbrev  0x00000000000034d8      0x16b build/kernel/components/finsh/finsh_var.o
 .debug_abbrev  0x0000000000003643      0x146 build/kernel/components/finsh/finsh_vm.o
 .debug_abbrev  0x0000000000003789      0x223 build/kernel/components/finsh/finsh_token.o
 .debug_abbrev  0x00000000000039ac      0x190 build/kernel/components/pthreads/clock_time.o
 .debug_abbrev  0x0000000000003b3c      0x208 build/kernel/components/pthreads/mqueue.o
 .debug_abbrev  0x0000000000003d44      0x26a build/kernel/components/pthreads/pthread.o
 .debug_abbrev  0x0000000000003fae      0x144 build/kernel/components/pthreads/pthread_attr.o
 .debug_abbrev  0x00000000000040f2      0x1bb build/kernel/components/pthreads/pthread_tls.o
 .debug_abbrev  0x00000000000042ad      0x1fb build/kernel/components/pthreads/semaphore.o
 .debug_abbrev  0x00000000000044a8       0x7b build/kernel/components/libc/newlib/libc.o
 .debug_abbrev  0x0000000000004523      0x2c1 build/kernel/components/libc/newlib/syscalls.o
 .debug_abbrev  0x00000000000047e4      0x327 build/kernel/components/utilities/logtrace/log_trace.o
 .debug_abbrev  0x0000000000004b0b      0x1a3 build/kernel/components/drivers/src/completion.o
 .debug_abbrev  0x0000000000004cae      0x1f1 build/kernel/components/drivers/src/dataqueue.o
 .debug_abbrev  0x0000000000004e9f      0x239 build/kernel/components/drivers/serial/serial.o
 .debug_abbrev  0x00000000000050d8      0x1d1 /usr/lib/gcc/arm-none-eabi/4.8.2/../../../arm-none-eabi/lib/armv7-ar/thumb/softfp/libc.a(lib_a-atoi.o)
 .debug_abbrev  0x00000000000052a9      0x180 /usr/lib/gcc/arm-none-eabi/4.8.2/../../../arm-none-eabi/lib/armv7-ar/thumb/softfp/libc.a(lib_a-impure.o)
 .debug_abbrev  0x0000000000005429       0xab /usr/lib/gcc/arm-none-eabi/4.8.2/../../../arm-none-eabi/lib/armv7-ar/thumb/softfp/libc.a(lib_a-memcpy-stub.o)
 .debug_abbrev  0x00000000000054d4       0x9f /usr/lib/gcc/arm-none-eabi/4.8.2/../../../arm-none-eabi/lib/armv7-ar/thumb/softfp/libc.a(lib_a-memset.o)
 .debug_abbrev  0x0000000000005573      0x1cd /usr/lib/gcc/arm-none-eabi/4.8.2/../../../arm-none-eabi/lib/armv7-ar/thumb/softfp/libc.a(lib_a-putenv.o)
 .debug_abbrev  0x0000000000005740      0x206 /usr/lib/gcc/arm-none-eabi/4.8.2/../../../arm-none-eabi/lib/armv7-ar/thumb/softfp/libc.a(lib_a-putenv_r.o)
 .debug_abbrev  0x0000000000005946      0x265 /usr/lib/gcc/arm-none-eabi/4.8.2/../../../arm-none-eabi/lib/armv7-ar/thumb/softfp/libc.a(lib_a-setenv_r.o)
 .debug_abbrev  0x0000000000005bab       0x83 /usr/lib/gcc/arm-none-eabi/4.8.2/../../../arm-none-eabi/lib/armv7-ar/thumb/softfp/libc.a(lib_a-strchr.o)
 .debug_abbrev  0x0000000000005c2e       0x14 /usr/lib/gcc/arm-none-eabi/4.8.2/../../../arm-none-eabi/lib/armv7-ar/thumb/softfp/libc.a(lib_a-strcmp.o)
 .debug_abbrev  0x0000000000005c42      0x20d /usr/lib/gcc/arm-none-eabi/4.8.2/../../../arm-none-eabi/lib/armv7-ar/thumb/softfp/libc.a(lib_a-strdup_r.o)
 .debug_abbrev  0x0000000000005e4f       0x70 /usr/lib/gcc/arm-none-eabi/4.8.2/../../../arm-none-eabi/lib/armv7-ar/thumb/softfp/libc.a(lib_a-strlen.o)
 .debug_abbrev  0x0000000000005ebf       0x81 /usr/lib/gcc/arm-none-eabi/4.8.2/../../../arm-none-eabi/lib/armv7-ar/thumb/softfp/libc.a(lib_a-strncmp.o)
 .debug_abbrev  0x0000000000005f40       0x9f /usr/lib/gcc/arm-none-eabi/4.8.2/../../../arm-none-eabi/lib/armv7-ar/thumb/softfp/libc.a(lib_a-strncpy.o)
 .debug_abbrev  0x0000000000005fdf      0x214 /usr/lib/gcc/arm-none-eabi/4.8.2/../../../arm-none-eabi/lib/armv7-ar/thumb/softfp/libc.a(lib_a-strtol.o)
 .debug_abbrev  0x00000000000061f3      0x1ae /usr/lib/gcc/arm-none-eabi/4.8.2/../../../arm-none-eabi/lib/armv7-ar/thumb/softfp/libc.a(lib_a-tzset.o)
 .debug_abbrev  0x00000000000063a1      0x278 /usr/lib/gcc/arm-none-eabi/4.8.2/../../../arm-none-eabi/lib/armv7-ar/thumb/softfp/libc.a(lib_a-tzset_r.o)
 .debug_abbrev  0x0000000000006619       0x52 /usr/lib/gcc/arm-none-eabi/4.8.2/../../../arm-none-eabi/lib/armv7-ar/thumb/softfp/libc.a(lib_a-tzvars.o)
 .debug_abbrev  0x000000000000666b       0x4e /usr/lib/gcc/arm-none-eabi/4.8.2/../../../arm-none-eabi/lib/armv7-ar/thumb/softfp/libc.a(lib_a-ctype_.o)
 .debug_abbrev  0x00000000000066b9       0x56 /usr/lib/gcc/arm-none-eabi/4.8.2/../../../arm-none-eabi/lib/armv7-ar/thumb/softfp/libc.a(lib_a-environ.o)
 .debug_abbrev  0x000000000000670f      0x19c /usr/lib/gcc/arm-none-eabi/4.8.2/../../../arm-none-eabi/lib/armv7-ar/thumb/softfp/libc.a(lib_a-envlock.o)
 .debug_abbrev  0x00000000000068ab      0x18f /usr/lib/gcc/arm-none-eabi/4.8.2/../../../arm-none-eabi/lib/armv7-ar/thumb/softfp/libc.a(lib_a-errno.o)
 .debug_abbrev  0x0000000000006a3a      0x228 /usr/lib/gcc/arm-none-eabi/4.8.2/../../../arm-none-eabi/lib/armv7-ar/thumb/softfp/libc.a(lib_a-getenv_r.o)
 .debug_abbrev  0x0000000000006c62       0xa8 /usr/lib/gcc/arm-none-eabi/4.8.2/../../../arm-none-eabi/lib/armv7-ar/thumb/softfp/libc.a(lib_a-gettzinfo.o)
 .debug_abbrev  0x0000000000006d0a      0x1fa /usr/lib/gcc/arm-none-eabi/4.8.2/../../../arm-none-eabi/lib/armv7-ar/thumb/softfp/libc.a(lib_a-malloc.o)
 .debug_abbrev  0x0000000000006f04      0x15c /usr/lib/gcc/arm-none-eabi/4.8.2/../../../arm-none-eabi/lib/armv7-ar/thumb/softfp/libc.a(lib_a-mktm_r.o)
 .debug_abbrev  0x0000000000007060      0x209 /usr/lib/gcc/arm-none-eabi/4.8.2/../../../arm-none-eabi/lib/armv7-ar/thumb/softfp/libc.a(lib_a-siscanf.o)
 .debug_abbrev  0x0000000000007269      0x246 /usr/lib/gcc/arm-none-eabi/4.8.2/../../../arm-none-eabi/lib/armv7-ar/thumb/softfp/libc.a(lib_a-stdio.o)
 .debug_abbrev  0x00000000000074af       0x72 /usr/lib/gcc/arm-none-eabi/4.8.2/../../../arm-none-eabi/lib/armv7-ar/thumb/softfp/libc.a(lib_a-strcpy.o)
 .debug_abbrev  0x0000000000007521      0x214 /usr/lib/gcc/arm-none-eabi/4.8.2/../../../arm-none-eabi/lib/armv7-ar/thumb/softfp/libc.a(lib_a-strtoul.o)
 .debug_abbrev  0x0000000000007735      0x337 /usr/lib/gcc/arm-none-eabi/4.8.2/../../../arm-none-eabi/lib/armv7-ar/thumb/softfp/libc.a(lib_a-svfiscanf.o)
 .debug_abbrev  0x0000000000007a6c       0x51 /usr/lib/gcc/arm-none-eabi/4.8.2/../../../arm-none-eabi/lib/armv7-ar/thumb/softfp/libc.a(lib_a-tzlock.o)
 .debug_abbrev  0x0000000000007abd      0x26f /usr/lib/gcc/arm-none-eabi/4.8.2/../../../arm-none-eabi/lib/armv7-ar/thumb/softfp/libc.a(lib_a-ungetc.o)
 .debug_abbrev  0x0000000000007d2c       0x83 /usr/lib/gcc/arm-none-eabi/4.8.2/../../../arm-none-eabi/lib/armv7-ar/thumb/softfp/libc.a(lib_a-iswspace.o)
 .debug_abbrev  0x0000000000007daf      0x2a3 /usr/lib/gcc/arm-none-eabi/4.8.2/../../../arm-none-eabi/lib/armv7-ar/thumb/softfp/libc.a(lib_a-locale.o)
 .debug_abbrev  0x0000000000008052      0x213 /usr/lib/gcc/arm-none-eabi/4.8.2/../../../arm-none-eabi/lib/armv7-ar/thumb/softfp/libc.a(lib_a-mbrtowc.o)
 .debug_abbrev  0x0000000000008265      0x221 /usr/lib/gcc/arm-none-eabi/4.8.2/../../../arm-none-eabi/lib/armv7-ar/thumb/softfp/libc.a(lib_a-mbtowc_r.o)
 .debug_abbrev  0x0000000000008486       0x87 /usr/lib/gcc/arm-none-eabi/4.8.2/../../../arm-none-eabi/lib/armv7-ar/thumb/softfp/libc.a(lib_a-sccl.o)
 .debug_abbrev  0x000000000000850d      0x1be /usr/lib/gcc/arm-none-eabi/4.8.2/../../../arm-none-eabi/lib/armv7-ar/thumb/softfp/libc.a(lib_a-strtoll_r.o)
 .debug_abbrev  0x00000000000086cb      0x1be /usr/lib/gcc/arm-none-eabi/4.8.2/../../../arm-none-eabi/lib/armv7-ar/thumb/softfp/libc.a(lib_a-strtoull_r.o)
 .debug_abbrev  0x0000000000008889       0x14 /usr/lib/gcc/arm-none-eabi/4.8.2/armv7-ar/thumb/softfp/libgcc.a(_udivsi3.o)
 .debug_abbrev  0x000000000000889d       0x14 /usr/lib/gcc/arm-none-eabi/4.8.2/armv7-ar/thumb/softfp/libgcc.a(_divsi3.o)
 .debug_abbrev  0x00000000000088b1       0x14 /usr/lib/gcc/arm-none-eabi/4.8.2/armv7-ar/thumb/softfp/libgcc.a(_dvmd_tls.o)
 .debug_abbrev  0x00000000000088c5       0x14 /usr/lib/gcc/arm-none-eabi/4.8.2/armv7-ar/thumb/softfp/libgcc.a(_aeabi_uldivmod.o)
 .debug_abbrev  0x00000000000088d9       0xb7 /usr/lib/gcc/arm-none-eabi/4.8.2/armv7-ar/thumb/softfp/libgcc.a(bpabi.o)
 .debug_abbrev  0x0000000000008990      0x15c /usr/lib/gcc/arm-none-eabi/4.8.2/armv7-ar/thumb/softfp/libgcc.a(_divdi3.o)
 .debug_abbrev  0x0000000000008aec      0x14b /usr/lib/gcc/arm-none-eabi/4.8.2/armv7-ar/thumb/softfp/libgcc.a(_udivdi3.o)

.debug_loc      0x0000000000000000     0xb591
 .debug_loc     0x0000000000000000       0x58 build/bsp/applications/application.o
 .debug_loc     0x0000000000000058       0x58 build/bsp/applications/startup.o
 .debug_loc     0x00000000000000b0       0xb0 build/bsp/drivers/board.o
 .debug_loc     0x0000000000000160      0x134 build/bsp/drivers/serial.o
 .debug_loc     0x0000000000000294       0xdc build/kernel/src/clock.o
 .debug_loc     0x0000000000000370       0xdc build/kernel/src/components.o
 .debug_loc     0x000000000000044c      0x210 build/kernel/src/device.o
 .debug_loc     0x000000000000065c      0x108 build/kernel/src/idle.o
 .debug_loc     0x0000000000000764      0x7bc build/kernel/src/ipc.o
 .debug_loc     0x0000000000000f20       0x84 build/kernel/src/irq.o
 .debug_loc     0x0000000000000fa4      0x54c build/kernel/src/kservice.o
 .debug_loc     0x00000000000014f0      0x1b8 build/kernel/src/mem.o
 .debug_loc     0x00000000000016a8      0x294 build/kernel/src/object.o
 .debug_loc     0x000000000000193c      0x23c build/kernel/src/scheduler.o
 .debug_loc     0x0000000000001b78      0x370 build/kernel/src/thread.o
 .debug_loc     0x0000000000001ee8      0x344 build/kernel/src/timer.o
 .debug_loc     0x000000000000222c       0x2c build/kernel/libcpu/arm/realview-a8-vmm/cpu.o
 .debug_loc     0x0000000000002258      0x268 build/kernel/libcpu/arm/realview-a8-vmm/gic.o
 .debug_loc     0x00000000000024c0      0x134 build/kernel/libcpu/arm/realview-a8-vmm/interrupt.o
 .debug_loc     0x00000000000025f4       0x2c build/kernel/libcpu/arm/realview-a8-vmm/stack.o
 .debug_loc     0x0000000000002620      0x160 build/kernel/libcpu/arm/realview-a8-vmm/trap.o
 .debug_loc     0x0000000000002780      0x268 build/kernel/components/finsh/shell.o
 .debug_loc     0x00000000000029e8      0x4a4 build/kernel/components/finsh/cmd.o
 .debug_loc     0x0000000000002e8c       0x84 build/kernel/components/finsh/msh_cmd.o
 .debug_loc     0x0000000000002f10      0x1b8 build/kernel/components/finsh/msh.o
 .debug_loc     0x00000000000030c8       0x84 build/kernel/components/finsh/finsh_compiler.o
 .debug_loc     0x000000000000314c       0xb0 build/kernel/components/finsh/finsh_error.o
 .debug_loc     0x00000000000031fc      0x160 build/kernel/components/finsh/finsh_heap.o
 .debug_loc     0x000000000000335c       0xb0 build/kernel/components/finsh/finsh_init.o
 .debug_loc     0x000000000000340c      0x160 build/kernel/components/finsh/finsh_node.o
 .debug_loc     0x000000000000356c      0x840 build/kernel/components/finsh/finsh_ops.o
 .debug_loc     0x0000000000003dac      0x370 build/kernel/components/finsh/finsh_parser.o
 .debug_loc     0x000000000000411c      0x108 build/kernel/components/finsh/finsh_var.o
 .debug_loc     0x0000000000004224       0x84 build/kernel/components/finsh/finsh_vm.o
 .debug_loc     0x00000000000042a8      0x268 build/kernel/components/finsh/finsh_token.o
 .debug_loc     0x0000000000004510       0xdc build/kernel/components/pthreads/clock_time.o
 .debug_loc     0x00000000000045ec      0x274 build/kernel/components/pthreads/mqueue.o
 .debug_loc     0x0000000000004860      0x2ec build/kernel/components/pthreads/pthread.o
 .debug_loc     0x0000000000004b4c      0x318 build/kernel/components/pthreads/pthread_attr.o
 .debug_loc     0x0000000000004e64      0x108 build/kernel/components/pthreads/pthread_tls.o
 .debug_loc     0x0000000000004f6c      0x274 build/kernel/components/pthreads/semaphore.o
 .debug_loc     0x00000000000051e0       0x2c build/kernel/components/libc/newlib/libc.o
 .debug_loc     0x000000000000520c      0x4a4 build/kernel/components/libc/newlib/syscalls.o
 .debug_loc     0x00000000000056b0      0x304 build/kernel/components/utilities/logtrace/log_trace.o
 .debug_loc     0x00000000000059b4      0x108 build/kernel/components/drivers/src/completion.o
 .debug_loc     0x0000000000005abc      0x160 build/kernel/components/drivers/src/dataqueue.o
 .debug_loc     0x0000000000005c1c      0x268 build/kernel/components/drivers/serial/serial.o
 .debug_loc     0x0000000000005e84       0x63 /usr/lib/gcc/arm-none-eabi/4.8.2/../../../arm-none-eabi/lib/armv7-ar/thumb/softfp/libc.a(lib_a-atoi.o)
 .debug_loc     0x0000000000005ee7      0x1fb /usr/lib/gcc/arm-none-eabi/4.8.2/../../../arm-none-eabi/lib/armv7-ar/thumb/softfp/libc.a(lib_a-memcpy-stub.o)
 .debug_loc     0x00000000000060e2      0x18b /usr/lib/gcc/arm-none-eabi/4.8.2/../../../arm-none-eabi/lib/armv7-ar/thumb/softfp/libc.a(lib_a-memset.o)
 .debug_loc     0x000000000000626d       0x2c /usr/lib/gcc/arm-none-eabi/4.8.2/../../../arm-none-eabi/lib/armv7-ar/thumb/softfp/libc.a(lib_a-putenv.o)
 .debug_loc     0x0000000000006299       0xc7 /usr/lib/gcc/arm-none-eabi/4.8.2/../../../arm-none-eabi/lib/armv7-ar/thumb/softfp/libc.a(lib_a-putenv_r.o)
 .debug_loc     0x0000000000006360      0x326 /usr/lib/gcc/arm-none-eabi/4.8.2/../../../arm-none-eabi/lib/armv7-ar/thumb/softfp/libc.a(lib_a-setenv_r.o)
 .debug_loc     0x0000000000006686      0x20e /usr/lib/gcc/arm-none-eabi/4.8.2/../../../arm-none-eabi/lib/armv7-ar/thumb/softfp/libc.a(lib_a-strchr.o)
 .debug_loc     0x0000000000006894       0x68 /usr/lib/gcc/arm-none-eabi/4.8.2/../../../arm-none-eabi/lib/armv7-ar/thumb/softfp/libc.a(lib_a-strdup_r.o)
 .debug_loc     0x00000000000068fc       0x21 /usr/lib/gcc/arm-none-eabi/4.8.2/../../../arm-none-eabi/lib/armv7-ar/thumb/softfp/libc.a(lib_a-strlen.o)
 .debug_loc     0x000000000000691d      0x146 /usr/lib/gcc/arm-none-eabi/4.8.2/../../../arm-none-eabi/lib/armv7-ar/thumb/softfp/libc.a(lib_a-strncmp.o)
 .debug_loc     0x0000000000006a63      0x15b /usr/lib/gcc/arm-none-eabi/4.8.2/../../../arm-none-eabi/lib/armv7-ar/thumb/softfp/libc.a(lib_a-strncpy.o)
 .debug_loc     0x0000000000006bbe      0x372 /usr/lib/gcc/arm-none-eabi/4.8.2/../../../arm-none-eabi/lib/armv7-ar/thumb/softfp/libc.a(lib_a-strtol.o)
 .debug_loc     0x0000000000006f30      0x1cb /usr/lib/gcc/arm-none-eabi/4.8.2/../../../arm-none-eabi/lib/armv7-ar/thumb/softfp/libc.a(lib_a-tzset_r.o)
 .debug_loc     0x00000000000070fb      0x156 /usr/lib/gcc/arm-none-eabi/4.8.2/../../../arm-none-eabi/lib/armv7-ar/thumb/softfp/libc.a(lib_a-getenv_r.o)
 .debug_loc     0x0000000000007251       0x58 /usr/lib/gcc/arm-none-eabi/4.8.2/../../../arm-none-eabi/lib/armv7-ar/thumb/softfp/libc.a(lib_a-malloc.o)
 .debug_loc     0x00000000000072a9      0x40a /usr/lib/gcc/arm-none-eabi/4.8.2/../../../arm-none-eabi/lib/armv7-ar/thumb/softfp/libc.a(lib_a-mktm_r.o)
 .debug_loc     0x00000000000076b3       0x6e /usr/lib/gcc/arm-none-eabi/4.8.2/../../../arm-none-eabi/lib/armv7-ar/thumb/softfp/libc.a(lib_a-siscanf.o)
 .debug_loc     0x0000000000007721      0x29e /usr/lib/gcc/arm-none-eabi/4.8.2/../../../arm-none-eabi/lib/armv7-ar/thumb/softfp/libc.a(lib_a-stdio.o)
 .debug_loc     0x00000000000079bf       0x21 /usr/lib/gcc/arm-none-eabi/4.8.2/../../../arm-none-eabi/lib/armv7-ar/thumb/softfp/libc.a(lib_a-strcpy.o)
 .debug_loc     0x00000000000079e0      0x35d /usr/lib/gcc/arm-none-eabi/4.8.2/../../../arm-none-eabi/lib/armv7-ar/thumb/softfp/libc.a(lib_a-strtoul.o)
 .debug_loc     0x0000000000007d3d     0x1299 /usr/lib/gcc/arm-none-eabi/4.8.2/../../../arm-none-eabi/lib/armv7-ar/thumb/softfp/libc.a(lib_a-svfiscanf.o)
 .debug_loc     0x0000000000008fd6      0x24b /usr/lib/gcc/arm-none-eabi/4.8.2/../../../arm-none-eabi/lib/armv7-ar/thumb/softfp/libc.a(lib_a-ungetc.o)
 .debug_loc     0x0000000000009221       0x21 /usr/lib/gcc/arm-none-eabi/4.8.2/../../../arm-none-eabi/lib/armv7-ar/thumb/softfp/libc.a(lib_a-iswspace.o)
 .debug_loc     0x0000000000009242       0xd9 /usr/lib/gcc/arm-none-eabi/4.8.2/../../../arm-none-eabi/lib/armv7-ar/thumb/softfp/libc.a(lib_a-locale.o)
 .debug_loc     0x000000000000931b      0x22c /usr/lib/gcc/arm-none-eabi/4.8.2/../../../arm-none-eabi/lib/armv7-ar/thumb/softfp/libc.a(lib_a-mbrtowc.o)
 .debug_loc     0x0000000000009547      0x19d /usr/lib/gcc/arm-none-eabi/4.8.2/../../../arm-none-eabi/lib/armv7-ar/thumb/softfp/libc.a(lib_a-mbtowc_r.o)
 .debug_loc     0x00000000000096e4      0x1af /usr/lib/gcc/arm-none-eabi/4.8.2/../../../arm-none-eabi/lib/armv7-ar/thumb/softfp/libc.a(lib_a-sccl.o)
 .debug_loc     0x0000000000009893      0x36c /usr/lib/gcc/arm-none-eabi/4.8.2/../../../arm-none-eabi/lib/armv7-ar/thumb/softfp/libc.a(lib_a-strtoll_r.o)
 .debug_loc     0x0000000000009bff      0x2fa /usr/lib/gcc/arm-none-eabi/4.8.2/../../../arm-none-eabi/lib/armv7-ar/thumb/softfp/libc.a(lib_a-strtoull_r.o)
 .debug_loc     0x0000000000009ef9       0xa0 /usr/lib/gcc/arm-none-eabi/4.8.2/armv7-ar/thumb/softfp/libgcc.a(bpabi.o)
 .debug_loc     0x0000000000009f99      0xab0 /usr/lib/gcc/arm-none-eabi/4.8.2/armv7-ar/thumb/softfp/libgcc.a(_divdi3.o)
 .debug_loc     0x000000000000aa49      0xb48 /usr/lib/gcc/arm-none-eabi/4.8.2/armv7-ar/thumb/softfp/libgcc.a(_udivdi3.o)

.debug_aranges  0x0000000000000000      0xd08
 .debug_aranges
                0x0000000000000000       0x20 build/bsp/applications/application.o
 .debug_aranges
                0x0000000000000020       0x20 build/bsp/applications/startup.o
 .debug_aranges
                0x0000000000000040       0x20 build/bsp/drivers/board.o
 .debug_aranges
                0x0000000000000060       0x20 build/bsp/drivers/serial.o
 .debug_aranges
                0x0000000000000080       0x20 build/kernel/src/clock.o
 .debug_aranges
                0x00000000000000a0       0x20 build/kernel/src/components.o
 .debug_aranges
                0x00000000000000c0       0x20 build/kernel/src/device.o
 .debug_aranges
                0x00000000000000e0       0x20 build/kernel/src/idle.o
 .debug_aranges
                0x0000000000000100       0x20 build/kernel/src/ipc.o
 .debug_aranges
                0x0000000000000120       0x20 build/kernel/src/irq.o
 .debug_aranges
                0x0000000000000140       0x20 build/kernel/src/kservice.o
 .debug_aranges
                0x0000000000000160       0x20 build/kernel/src/mem.o
 .debug_aranges
                0x0000000000000180       0x20 build/kernel/src/object.o
 .debug_aranges
                0x00000000000001a0       0x20 build/kernel/src/scheduler.o
 .debug_aranges
                0x00000000000001c0       0x20 build/kernel/src/thread.o
 .debug_aranges
                0x00000000000001e0       0x20 build/kernel/src/timer.o
 .debug_aranges
                0x0000000000000200       0x20 build/kernel/libcpu/arm/realview-a8-vmm/cpu.o
 .debug_aranges
                0x0000000000000220       0x20 build/kernel/libcpu/arm/realview-a8-vmm/gic.o
 .debug_aranges
                0x0000000000000240       0x20 build/kernel/libcpu/arm/realview-a8-vmm/interrupt.o
 .debug_aranges
                0x0000000000000260       0x20 build/kernel/libcpu/arm/realview-a8-vmm/stack.o
 .debug_aranges
                0x0000000000000280       0x20 build/kernel/libcpu/arm/realview-a8-vmm/trap.o
 .debug_aranges
                0x00000000000002a0       0x28 build/kernel/libcpu/arm/realview-a8-vmm/context_gcc.o
 .debug_aranges
                0x00000000000002c8       0x20 build/kernel/libcpu/arm/realview-a8-vmm/cp15_gcc.o
 .debug_aranges
                0x00000000000002e8       0x28 build/kernel/libcpu/arm/realview-a8-vmm/start_gcc.o
 .debug_aranges
                0x0000000000000310       0x20 build/kernel/libcpu/arm/realview-a8-vmm/vector_gcc.o
 .debug_aranges
                0x0000000000000330       0x20 build/kernel/components/finsh/shell.o
 .debug_aranges
                0x0000000000000350       0x18 build/kernel/components/finsh/symbol.o
 .debug_aranges
                0x0000000000000368       0x20 build/kernel/components/finsh/cmd.o
 .debug_aranges
                0x0000000000000388       0x20 build/kernel/components/finsh/msh_cmd.o
 .debug_aranges
                0x00000000000003a8       0x20 build/kernel/components/finsh/msh.o
 .debug_aranges
                0x00000000000003c8       0x20 build/kernel/components/finsh/finsh_compiler.o
 .debug_aranges
                0x00000000000003e8       0x20 build/kernel/components/finsh/finsh_error.o
 .debug_aranges
                0x0000000000000408       0x20 build/kernel/components/finsh/finsh_heap.o
 .debug_aranges
                0x0000000000000428       0x20 build/kernel/components/finsh/finsh_init.o
 .debug_aranges
                0x0000000000000448       0x20 build/kernel/components/finsh/finsh_node.o
 .debug_aranges
                0x0000000000000468       0x20 build/kernel/components/finsh/finsh_ops.o
 .debug_aranges
                0x0000000000000488       0x20 build/kernel/components/finsh/finsh_parser.o
 .debug_aranges
                0x00000000000004a8       0x20 build/kernel/components/finsh/finsh_var.o
 .debug_aranges
                0x00000000000004c8       0x20 build/kernel/components/finsh/finsh_vm.o
 .debug_aranges
                0x00000000000004e8       0x20 build/kernel/components/finsh/finsh_token.o
 .debug_aranges
                0x0000000000000508       0x20 build/kernel/components/pthreads/clock_time.o
 .debug_aranges
                0x0000000000000528       0x20 build/kernel/components/pthreads/mqueue.o
 .debug_aranges
                0x0000000000000548       0x20 build/kernel/components/pthreads/pthread.o
 .debug_aranges
                0x0000000000000568       0x20 build/kernel/components/pthreads/pthread_attr.o
 .debug_aranges
                0x0000000000000588       0x20 build/kernel/components/pthreads/pthread_tls.o
 .debug_aranges
                0x00000000000005a8       0x20 build/kernel/components/pthreads/semaphore.o
 .debug_aranges
                0x00000000000005c8       0x20 build/kernel/components/libc/newlib/libc.o
 .debug_aranges
                0x00000000000005e8       0x20 build/kernel/components/libc/newlib/syscalls.o
 .debug_aranges
                0x0000000000000608       0x20 build/kernel/components/utilities/logtrace/log_trace.o
 .debug_aranges
                0x0000000000000628       0x20 build/kernel/components/drivers/src/completion.o
 .debug_aranges
                0x0000000000000648       0x20 build/kernel/components/drivers/src/dataqueue.o
 .debug_aranges
                0x0000000000000668       0x20 build/kernel/components/drivers/serial/serial.o
 .debug_aranges
                0x0000000000000688       0x28 /usr/lib/gcc/arm-none-eabi/4.8.2/../../../arm-none-eabi/lib/armv7-ar/thumb/softfp/libc.a(lib_a-atoi.o)
 .debug_aranges
                0x00000000000006b0       0x18 /usr/lib/gcc/arm-none-eabi/4.8.2/../../../arm-none-eabi/lib/armv7-ar/thumb/softfp/libc.a(lib_a-impure.o)
 .debug_aranges
                0x00000000000006c8       0x20 /usr/lib/gcc/arm-none-eabi/4.8.2/../../../arm-none-eabi/lib/armv7-ar/thumb/softfp/libc.a(lib_a-memcpy-stub.o)
 .debug_aranges
                0x00000000000006e8       0x20 /usr/lib/gcc/arm-none-eabi/4.8.2/../../../arm-none-eabi/lib/armv7-ar/thumb/softfp/libc.a(lib_a-memset.o)
 .debug_aranges
                0x0000000000000708       0x20 /usr/lib/gcc/arm-none-eabi/4.8.2/../../../arm-none-eabi/lib/armv7-ar/thumb/softfp/libc.a(lib_a-putenv.o)
 .debug_aranges
                0x0000000000000728       0x20 /usr/lib/gcc/arm-none-eabi/4.8.2/../../../arm-none-eabi/lib/armv7-ar/thumb/softfp/libc.a(lib_a-putenv_r.o)
 .debug_aranges
                0x0000000000000748       0x28 /usr/lib/gcc/arm-none-eabi/4.8.2/../../../arm-none-eabi/lib/armv7-ar/thumb/softfp/libc.a(lib_a-setenv_r.o)
 .debug_aranges
                0x0000000000000770       0x20 /usr/lib/gcc/arm-none-eabi/4.8.2/../../../arm-none-eabi/lib/armv7-ar/thumb/softfp/libc.a(lib_a-strchr.o)
 .debug_aranges
                0x0000000000000790       0x20 /usr/lib/gcc/arm-none-eabi/4.8.2/../../../arm-none-eabi/lib/armv7-ar/thumb/softfp/libc.a(lib_a-strcmp.o)
 .debug_aranges
                0x00000000000007b0       0x20 /usr/lib/gcc/arm-none-eabi/4.8.2/../../../arm-none-eabi/lib/armv7-ar/thumb/softfp/libc.a(lib_a-strdup_r.o)
 .debug_aranges
                0x00000000000007d0       0x20 /usr/lib/gcc/arm-none-eabi/4.8.2/../../../arm-none-eabi/lib/armv7-ar/thumb/softfp/libc.a(lib_a-strlen.o)
 .debug_aranges
                0x00000000000007f0       0x20 /usr/lib/gcc/arm-none-eabi/4.8.2/../../../arm-none-eabi/lib/armv7-ar/thumb/softfp/libc.a(lib_a-strncmp.o)
 .debug_aranges
                0x0000000000000810       0x20 /usr/lib/gcc/arm-none-eabi/4.8.2/../../../arm-none-eabi/lib/armv7-ar/thumb/softfp/libc.a(lib_a-strncpy.o)
 .debug_aranges
                0x0000000000000830       0x28 /usr/lib/gcc/arm-none-eabi/4.8.2/../../../arm-none-eabi/lib/armv7-ar/thumb/softfp/libc.a(lib_a-strtol.o)
 .debug_aranges
                0x0000000000000858       0x20 /usr/lib/gcc/arm-none-eabi/4.8.2/../../../arm-none-eabi/lib/armv7-ar/thumb/softfp/libc.a(lib_a-tzset.o)
 .debug_aranges
                0x0000000000000878       0x20 /usr/lib/gcc/arm-none-eabi/4.8.2/../../../arm-none-eabi/lib/armv7-ar/thumb/softfp/libc.a(lib_a-tzset_r.o)
 .debug_aranges
                0x0000000000000898       0x18 /usr/lib/gcc/arm-none-eabi/4.8.2/../../../arm-none-eabi/lib/armv7-ar/thumb/softfp/libc.a(lib_a-tzvars.o)
 .debug_aranges
                0x00000000000008b0       0x18 /usr/lib/gcc/arm-none-eabi/4.8.2/../../../arm-none-eabi/lib/armv7-ar/thumb/softfp/libc.a(lib_a-ctype_.o)
 .debug_aranges
                0x00000000000008c8       0x18 /usr/lib/gcc/arm-none-eabi/4.8.2/../../../arm-none-eabi/lib/armv7-ar/thumb/softfp/libc.a(lib_a-environ.o)
 .debug_aranges
                0x00000000000008e0       0x28 /usr/lib/gcc/arm-none-eabi/4.8.2/../../../arm-none-eabi/lib/armv7-ar/thumb/softfp/libc.a(lib_a-envlock.o)
 .debug_aranges
                0x0000000000000908       0x20 /usr/lib/gcc/arm-none-eabi/4.8.2/../../../arm-none-eabi/lib/armv7-ar/thumb/softfp/libc.a(lib_a-errno.o)
 .debug_aranges
                0x0000000000000928       0x28 /usr/lib/gcc/arm-none-eabi/4.8.2/../../../arm-none-eabi/lib/armv7-ar/thumb/softfp/libc.a(lib_a-getenv_r.o)
 .debug_aranges
                0x0000000000000950       0x20 /usr/lib/gcc/arm-none-eabi/4.8.2/../../../arm-none-eabi/lib/armv7-ar/thumb/softfp/libc.a(lib_a-gettzinfo.o)
 .debug_aranges
                0x0000000000000970       0x28 /usr/lib/gcc/arm-none-eabi/4.8.2/../../../arm-none-eabi/lib/armv7-ar/thumb/softfp/libc.a(lib_a-malloc.o)
 .debug_aranges
                0x0000000000000998       0x28 /usr/lib/gcc/arm-none-eabi/4.8.2/../../../arm-none-eabi/lib/armv7-ar/thumb/softfp/libc.a(lib_a-mktm_r.o)
 .debug_aranges
                0x00000000000009c0       0x28 /usr/lib/gcc/arm-none-eabi/4.8.2/../../../arm-none-eabi/lib/armv7-ar/thumb/softfp/libc.a(lib_a-siscanf.o)
 .debug_aranges
                0x00000000000009e8       0x40 /usr/lib/gcc/arm-none-eabi/4.8.2/../../../arm-none-eabi/lib/armv7-ar/thumb/softfp/libc.a(lib_a-stdio.o)
 .debug_aranges
                0x0000000000000a28       0x20 /usr/lib/gcc/arm-none-eabi/4.8.2/../../../arm-none-eabi/lib/armv7-ar/thumb/softfp/libc.a(lib_a-strcpy.o)
 .debug_aranges
                0x0000000000000a48       0x28 /usr/lib/gcc/arm-none-eabi/4.8.2/../../../arm-none-eabi/lib/armv7-ar/thumb/softfp/libc.a(lib_a-strtoul.o)
 .debug_aranges
                0x0000000000000a70       0x38 /usr/lib/gcc/arm-none-eabi/4.8.2/../../../arm-none-eabi/lib/armv7-ar/thumb/softfp/libc.a(lib_a-svfiscanf.o)
 .debug_aranges
                0x0000000000000aa8       0x28 /usr/lib/gcc/arm-none-eabi/4.8.2/../../../arm-none-eabi/lib/armv7-ar/thumb/softfp/libc.a(lib_a-tzlock.o)
 .debug_aranges
                0x0000000000000ad0       0x30 /usr/lib/gcc/arm-none-eabi/4.8.2/../../../arm-none-eabi/lib/armv7-ar/thumb/softfp/libc.a(lib_a-ungetc.o)
 .debug_aranges
                0x0000000000000b00       0x20 /usr/lib/gcc/arm-none-eabi/4.8.2/../../../arm-none-eabi/lib/armv7-ar/thumb/softfp/libc.a(lib_a-iswspace.o)
 .debug_aranges
                0x0000000000000b20       0x58 /usr/lib/gcc/arm-none-eabi/4.8.2/../../../arm-none-eabi/lib/armv7-ar/thumb/softfp/libc.a(lib_a-locale.o)
 .debug_aranges
                0x0000000000000b78       0x28 /usr/lib/gcc/arm-none-eabi/4.8.2/../../../arm-none-eabi/lib/armv7-ar/thumb/softfp/libc.a(lib_a-mbrtowc.o)
 .debug_aranges
                0x0000000000000ba0       0x28 /usr/lib/gcc/arm-none-eabi/4.8.2/../../../arm-none-eabi/lib/armv7-ar/thumb/softfp/libc.a(lib_a-mbtowc_r.o)
 .debug_aranges
                0x0000000000000bc8       0x20 /usr/lib/gcc/arm-none-eabi/4.8.2/../../../arm-none-eabi/lib/armv7-ar/thumb/softfp/libc.a(lib_a-sccl.o)
 .debug_aranges
                0x0000000000000be8       0x20 /usr/lib/gcc/arm-none-eabi/4.8.2/../../../arm-none-eabi/lib/armv7-ar/thumb/softfp/libc.a(lib_a-strtoll_r.o)
 .debug_aranges
                0x0000000000000c08       0x20 /usr/lib/gcc/arm-none-eabi/4.8.2/../../../arm-none-eabi/lib/armv7-ar/thumb/softfp/libc.a(lib_a-strtoull_r.o)
 .debug_aranges
                0x0000000000000c28       0x20 /usr/lib/gcc/arm-none-eabi/4.8.2/armv7-ar/thumb/softfp/libgcc.a(_udivsi3.o)
 .debug_aranges
                0x0000000000000c48       0x20 /usr/lib/gcc/arm-none-eabi/4.8.2/armv7-ar/thumb/softfp/libgcc.a(_divsi3.o)
 .debug_aranges
                0x0000000000000c68       0x20 /usr/lib/gcc/arm-none-eabi/4.8.2/armv7-ar/thumb/softfp/libgcc.a(_dvmd_tls.o)
 .debug_aranges
                0x0000000000000c88       0x20 /usr/lib/gcc/arm-none-eabi/4.8.2/armv7-ar/thumb/softfp/libgcc.a(_aeabi_uldivmod.o)
 .debug_aranges
                0x0000000000000ca8       0x20 /usr/lib/gcc/arm-none-eabi/4.8.2/armv7-ar/thumb/softfp/libgcc.a(bpabi.o)
 .debug_aranges
                0x0000000000000cc8       0x20 /usr/lib/gcc/arm-none-eabi/4.8.2/armv7-ar/thumb/softfp/libgcc.a(_divdi3.o)
 .debug_aranges
                0x0000000000000ce8       0x20 /usr/lib/gcc/arm-none-eabi/4.8.2/armv7-ar/thumb/softfp/libgcc.a(_udivdi3.o)

.debug_line     0x0000000000000000     0xa783
 .debug_line    0x0000000000000000       0xac build/bsp/applications/application.o
 .debug_line    0x00000000000000ac       0x6a build/bsp/applications/startup.o
 .debug_line    0x0000000000000116       0xaa build/bsp/drivers/board.o
 .debug_line    0x00000000000001c0      0x17e build/bsp/drivers/serial.o
 .debug_line    0x000000000000033e       0xe8 build/kernel/src/clock.o
 .debug_line    0x0000000000000426      0x107 build/kernel/src/components.o
 .debug_line    0x000000000000052d      0x225 build/kernel/src/device.o
 .debug_line    0x0000000000000752      0x141 build/kernel/src/idle.o
 .debug_line    0x0000000000000893      0x8f6 build/kernel/src/ipc.o
 .debug_line    0x0000000000001189       0xde build/kernel/src/irq.o
 .debug_line    0x0000000000001267      0x4ac build/kernel/src/kservice.o
 .debug_line    0x0000000000001713      0x37a build/kernel/src/mem.o
 .debug_line    0x0000000000001a8d      0x212 build/kernel/src/object.o
 .debug_line    0x0000000000001c9f      0x19a build/kernel/src/scheduler.o
 .debug_line    0x0000000000001e39      0x2ca build/kernel/src/thread.o
 .debug_line    0x0000000000002103      0x290 build/kernel/src/timer.o
 .debug_line    0x0000000000002393      0x109 build/kernel/libcpu/arm/realview-a8-vmm/cpu.o
 .debug_line    0x000000000000249c      0x3e9 build/kernel/libcpu/arm/realview-a8-vmm/gic.o
 .debug_line    0x0000000000002885      0x120 build/kernel/libcpu/arm/realview-a8-vmm/interrupt.o
 .debug_line    0x00000000000029a5       0xfa build/kernel/libcpu/arm/realview-a8-vmm/stack.o
 .debug_line    0x0000000000002a9f      0x14a build/kernel/libcpu/arm/realview-a8-vmm/trap.o
 .debug_line    0x0000000000002be9       0xce build/kernel/libcpu/arm/realview-a8-vmm/context_gcc.o
 .debug_line    0x0000000000002cb7       0xe1 build/kernel/libcpu/arm/realview-a8-vmm/cp15_gcc.o
 .debug_line    0x0000000000002d98      0x12c build/kernel/libcpu/arm/realview-a8-vmm/start_gcc.o
 .debug_line    0x0000000000002ec4       0x9e build/kernel/libcpu/arm/realview-a8-vmm/vector_gcc.o
 .debug_line    0x0000000000002f62      0x32e build/kernel/components/finsh/shell.o
 .debug_line    0x0000000000003290       0xa8 build/kernel/components/finsh/symbol.o
 .debug_line    0x0000000000003338      0x3ca build/kernel/components/finsh/cmd.o
 .debug_line    0x0000000000003702       0xa0 build/kernel/components/finsh/msh_cmd.o
 .debug_line    0x00000000000037a2      0x26c build/kernel/components/finsh/msh.o
 .debug_line    0x0000000000003a0e      0x526 build/kernel/components/finsh/finsh_compiler.o
 .debug_line    0x0000000000003f34       0xbe build/kernel/components/finsh/finsh_error.o
 .debug_line    0x0000000000003ff2      0x1e2 build/kernel/components/finsh/finsh_heap.o
 .debug_line    0x00000000000041d4       0xef build/kernel/components/finsh/finsh_init.o
 .debug_line    0x00000000000042c3      0x13b build/kernel/components/finsh/finsh_node.o
 .debug_line    0x00000000000043fe      0x28b build/kernel/components/finsh/finsh_ops.o
 .debug_line    0x0000000000004689      0x390 build/kernel/components/finsh/finsh_parser.o
 .debug_line    0x0000000000004a19      0x154 build/kernel/components/finsh/finsh_var.o
 .debug_line    0x0000000000004b6d      0x11d build/kernel/components/finsh/finsh_vm.o
 .debug_line    0x0000000000004c8a      0x31a build/kernel/components/finsh/finsh_token.o
 .debug_line    0x0000000000004fa4      0x187 build/kernel/components/pthreads/clock_time.o
 .debug_line    0x000000000000512b      0x249 build/kernel/components/pthreads/mqueue.o
 .debug_line    0x0000000000005374      0x2d4 build/kernel/components/pthreads/pthread.o
 .debug_line    0x0000000000005648      0x290 build/kernel/components/pthreads/pthread_attr.o
 .debug_line    0x00000000000058d8      0x1b2 build/kernel/components/pthreads/pthread_tls.o
 .debug_line    0x0000000000005a8a      0x242 build/kernel/components/pthreads/semaphore.o
 .debug_line    0x0000000000005ccc       0xe7 build/kernel/components/libc/newlib/libc.o
 .debug_line    0x0000000000005db3      0x235 build/kernel/components/libc/newlib/syscalls.o
 .debug_line    0x0000000000005fe8      0x345 build/kernel/components/utilities/logtrace/log_trace.o
 .debug_line    0x000000000000632d      0x1fc build/kernel/components/drivers/src/completion.o
 .debug_line    0x0000000000006529      0x2dd build/kernel/components/drivers/src/dataqueue.o
 .debug_line    0x0000000000006806      0x57b build/kernel/components/drivers/serial/serial.o
 .debug_line    0x0000000000006d81      0x138 /usr/lib/gcc/arm-none-eabi/4.8.2/../../../arm-none-eabi/lib/armv7-ar/thumb/softfp/libc.a(lib_a-atoi.o)
 .debug_line    0x0000000000006eb9       0xdc /usr/lib/gcc/arm-none-eabi/4.8.2/../../../arm-none-eabi/lib/armv7-ar/thumb/softfp/libc.a(lib_a-impure.o)
 .debug_line    0x0000000000006f95      0x123 /usr/lib/gcc/arm-none-eabi/4.8.2/../../../arm-none-eabi/lib/armv7-ar/thumb/softfp/libc.a(lib_a-memcpy-stub.o)
 .debug_line    0x00000000000070b8      0x10e /usr/lib/gcc/arm-none-eabi/4.8.2/../../../arm-none-eabi/lib/armv7-ar/thumb/softfp/libc.a(lib_a-memset.o)
 .debug_line    0x00000000000071c6      0x12a /usr/lib/gcc/arm-none-eabi/4.8.2/../../../arm-none-eabi/lib/armv7-ar/thumb/softfp/libc.a(lib_a-putenv.o)
 .debug_line    0x00000000000072f0      0x14d /usr/lib/gcc/arm-none-eabi/4.8.2/../../../arm-none-eabi/lib/armv7-ar/thumb/softfp/libc.a(lib_a-putenv_r.o)
 .debug_line    0x000000000000743d      0x1f3 /usr/lib/gcc/arm-none-eabi/4.8.2/../../../arm-none-eabi/lib/armv7-ar/thumb/softfp/libc.a(lib_a-setenv_r.o)
 .debug_line    0x0000000000007630       0xf1 /usr/lib/gcc/arm-none-eabi/4.8.2/../../../arm-none-eabi/lib/armv7-ar/thumb/softfp/libc.a(lib_a-strchr.o)
 .debug_line    0x0000000000007721      0x101 /usr/lib/gcc/arm-none-eabi/4.8.2/../../../arm-none-eabi/lib/armv7-ar/thumb/softfp/libc.a(lib_a-strcmp.o)
 .debug_line    0x0000000000007822      0x13b /usr/lib/gcc/arm-none-eabi/4.8.2/../../../arm-none-eabi/lib/armv7-ar/thumb/softfp/libc.a(lib_a-strdup_r.o)
 .debug_line    0x000000000000795d       0xdd /usr/lib/gcc/arm-none-eabi/4.8.2/../../../arm-none-eabi/lib/armv7-ar/thumb/softfp/libc.a(lib_a-strlen.o)
 .debug_line    0x0000000000007a3a      0x138 /usr/lib/gcc/arm-none-eabi/4.8.2/../../../arm-none-eabi/lib/armv7-ar/thumb/softfp/libc.a(lib_a-strncmp.o)
 .debug_line    0x0000000000007b72      0x108 /usr/lib/gcc/arm-none-eabi/4.8.2/../../../arm-none-eabi/lib/armv7-ar/thumb/softfp/libc.a(lib_a-strncpy.o)
 .debug_line    0x0000000000007c7a      0x1ab /usr/lib/gcc/arm-none-eabi/4.8.2/../../../arm-none-eabi/lib/armv7-ar/thumb/softfp/libc.a(lib_a-strtol.o)
 .debug_line    0x0000000000007e25      0x124 /usr/lib/gcc/arm-none-eabi/4.8.2/../../../arm-none-eabi/lib/armv7-ar/thumb/softfp/libc.a(lib_a-tzset.o)
 .debug_line    0x0000000000007f49      0x256 /usr/lib/gcc/arm-none-eabi/4.8.2/../../../arm-none-eabi/lib/armv7-ar/thumb/softfp/libc.a(lib_a-tzset_r.o)
 .debug_line    0x000000000000819f       0x56 /usr/lib/gcc/arm-none-eabi/4.8.2/../../../arm-none-eabi/lib/armv7-ar/thumb/softfp/libc.a(lib_a-tzvars.o)
 .debug_line    0x00000000000081f5       0x57 /usr/lib/gcc/arm-none-eabi/4.8.2/../../../arm-none-eabi/lib/armv7-ar/thumb/softfp/libc.a(lib_a-ctype_.o)
 .debug_line    0x000000000000824c       0x55 /usr/lib/gcc/arm-none-eabi/4.8.2/../../../arm-none-eabi/lib/armv7-ar/thumb/softfp/libc.a(lib_a-environ.o)
 .debug_line    0x00000000000082a1      0x138 /usr/lib/gcc/arm-none-eabi/4.8.2/../../../arm-none-eabi/lib/armv7-ar/thumb/softfp/libc.a(lib_a-envlock.o)
 .debug_line    0x00000000000083d9       0xf7 /usr/lib/gcc/arm-none-eabi/4.8.2/../../../arm-none-eabi/lib/armv7-ar/thumb/softfp/libc.a(lib_a-errno.o)
 .debug_line    0x00000000000084d0      0x17b /usr/lib/gcc/arm-none-eabi/4.8.2/../../../arm-none-eabi/lib/armv7-ar/thumb/softfp/libc.a(lib_a-getenv_r.o)
 .debug_line    0x000000000000864b       0xdc /usr/lib/gcc/arm-none-eabi/4.8.2/../../../arm-none-eabi/lib/armv7-ar/thumb/softfp/libc.a(lib_a-gettzinfo.o)
 .debug_line    0x0000000000008727      0x13e /usr/lib/gcc/arm-none-eabi/4.8.2/../../../arm-none-eabi/lib/armv7-ar/thumb/softfp/libc.a(lib_a-malloc.o)
 .debug_line    0x0000000000008865      0x316 /usr/lib/gcc/arm-none-eabi/4.8.2/../../../arm-none-eabi/lib/armv7-ar/thumb/softfp/libc.a(lib_a-mktm_r.o)
 .debug_line    0x0000000000008b7b      0x19c /usr/lib/gcc/arm-none-eabi/4.8.2/../../../arm-none-eabi/lib/armv7-ar/thumb/softfp/libc.a(lib_a-siscanf.o)
 .debug_line    0x0000000000008d17      0x1a3 /usr/lib/gcc/arm-none-eabi/4.8.2/../../../arm-none-eabi/lib/armv7-ar/thumb/softfp/libc.a(lib_a-stdio.o)
 .debug_line    0x0000000000008eba       0xa7 /usr/lib/gcc/arm-none-eabi/4.8.2/../../../arm-none-eabi/lib/armv7-ar/thumb/softfp/libc.a(lib_a-strcpy.o)
 .debug_line    0x0000000000008f61      0x1a9 /usr/lib/gcc/arm-none-eabi/4.8.2/../../../arm-none-eabi/lib/armv7-ar/thumb/softfp/libc.a(lib_a-strtoul.o)
 .debug_line    0x000000000000910a      0x63d /usr/lib/gcc/arm-none-eabi/4.8.2/../../../arm-none-eabi/lib/armv7-ar/thumb/softfp/libc.a(lib_a-svfiscanf.o)
 .debug_line    0x0000000000009747       0x70 /usr/lib/gcc/arm-none-eabi/4.8.2/../../../arm-none-eabi/lib/armv7-ar/thumb/softfp/libc.a(lib_a-tzlock.o)
 .debug_line    0x00000000000097b7      0x1eb /usr/lib/gcc/arm-none-eabi/4.8.2/../../../arm-none-eabi/lib/armv7-ar/thumb/softfp/libc.a(lib_a-ungetc.o)
 .debug_line    0x00000000000099a2       0xe4 /usr/lib/gcc/arm-none-eabi/4.8.2/../../../arm-none-eabi/lib/armv7-ar/thumb/softfp/libc.a(lib_a-iswspace.o)
 .debug_line    0x0000000000009a86      0x1ca /usr/lib/gcc/arm-none-eabi/4.8.2/../../../arm-none-eabi/lib/armv7-ar/thumb/softfp/libc.a(lib_a-locale.o)
 .debug_line    0x0000000000009c50      0x16b /usr/lib/gcc/arm-none-eabi/4.8.2/../../../arm-none-eabi/lib/armv7-ar/thumb/softfp/libc.a(lib_a-mbrtowc.o)
 .debug_line    0x0000000000009dbb      0x169 /usr/lib/gcc/arm-none-eabi/4.8.2/../../../arm-none-eabi/lib/armv7-ar/thumb/softfp/libc.a(lib_a-mbtowc_r.o)
 .debug_line    0x0000000000009f24       0xdf /usr/lib/gcc/arm-none-eabi/4.8.2/../../../arm-none-eabi/lib/armv7-ar/thumb/softfp/libc.a(lib_a-sccl.o)
 .debug_line    0x000000000000a003      0x1bb /usr/lib/gcc/arm-none-eabi/4.8.2/../../../arm-none-eabi/lib/armv7-ar/thumb/softfp/libc.a(lib_a-strtoll_r.o)
 .debug_line    0x000000000000a1be      0x196 /usr/lib/gcc/arm-none-eabi/4.8.2/../../../arm-none-eabi/lib/armv7-ar/thumb/softfp/libc.a(lib_a-strtoull_r.o)
 .debug_line    0x000000000000a354       0x8d /usr/lib/gcc/arm-none-eabi/4.8.2/armv7-ar/thumb/softfp/libgcc.a(_udivsi3.o)
 .debug_line    0x000000000000a3e1       0x9e /usr/lib/gcc/arm-none-eabi/4.8.2/armv7-ar/thumb/softfp/libgcc.a(_divsi3.o)
 .debug_line    0x000000000000a47f       0x6a /usr/lib/gcc/arm-none-eabi/4.8.2/armv7-ar/thumb/softfp/libgcc.a(_dvmd_tls.o)
 .debug_line    0x000000000000a4e9       0x6e /usr/lib/gcc/arm-none-eabi/4.8.2/armv7-ar/thumb/softfp/libgcc.a(_aeabi_uldivmod.o)
 .debug_line    0x000000000000a557       0x6e /usr/lib/gcc/arm-none-eabi/4.8.2/armv7-ar/thumb/softfp/libgcc.a(bpabi.o)
 .debug_line    0x000000000000a5c5       0xe4 /usr/lib/gcc/arm-none-eabi/4.8.2/armv7-ar/thumb/softfp/libgcc.a(_divdi3.o)
 .debug_line    0x000000000000a6a9       0xda /usr/lib/gcc/arm-none-eabi/4.8.2/armv7-ar/thumb/softfp/libgcc.a(_udivdi3.o)

.debug_str      0x0000000000000000     0x6e52
 .debug_str     0x0000000000000000      0x27c build/bsp/applications/application.o
                                        0x319 (size before relaxing)
 .debug_str     0x000000000000027c       0x37 build/bsp/applications/startup.o
                                        0x164 (size before relaxing)
 .debug_str     0x00000000000002b3       0x6d build/bsp/drivers/board.o
                                        0x1ef (size before relaxing)
 .debug_str     0x0000000000000320      0x368 build/bsp/drivers/serial.o
                                        0x5b7 (size before relaxing)
 .debug_str     0x0000000000000688       0xaa build/kernel/src/clock.o
                                        0x35c (size before relaxing)
 .debug_str     0x0000000000000732       0xc2 build/kernel/src/components.o
                                        0x219 (size before relaxing)
 .debug_str     0x00000000000007f4      0x29c build/kernel/src/device.o
                                        0x6e7 (size before relaxing)
 .debug_str     0x0000000000000a90      0x10b build/kernel/src/idle.o
                                        0x3fa (size before relaxing)
 .debug_str     0x0000000000000b9b      0x4a8 build/kernel/src/ipc.o
                                        0x8cc (size before relaxing)
 .debug_str     0x0000000000001043       0x98 build/kernel/src/irq.o
                                        0x1e0 (size before relaxing)
 .debug_str     0x00000000000010db      0x2d4 build/kernel/src/kservice.o
                                        0x82f (size before relaxing)
 .debug_str     0x00000000000013af      0x1de build/kernel/src/mem.o
                                        0x445 (size before relaxing)
 .debug_str     0x000000000000158d      0x1a4 build/kernel/src/object.o
                                        0x544 (size before relaxing)
 .debug_str     0x0000000000001731      0x1ab build/kernel/src/scheduler.o
                                        0x51c (size before relaxing)
 .debug_str     0x00000000000018dc      0x152 build/kernel/src/thread.o
                                        0x663 (size before relaxing)
 .debug_str     0x0000000000001a2e      0x1b7 build/kernel/src/timer.o
                                        0x59f (size before relaxing)
 .debug_str     0x0000000000001be5       0x74 build/kernel/libcpu/arm/realview-a8-vmm/cpu.o
                                        0x1ea (size before relaxing)
 .debug_str     0x0000000000001c59      0x1e2 build/kernel/libcpu/arm/realview-a8-vmm/gic.o
                                        0x3e0 (size before relaxing)
 .debug_str     0x0000000000001e3b      0x1c0 build/kernel/libcpu/arm/realview-a8-vmm/interrupt.o
                                        0x342 (size before relaxing)
 .debug_str     0x0000000000001ffb       0x7b build/kernel/libcpu/arm/realview-a8-vmm/stack.o
                                        0x1da (size before relaxing)
 .debug_str     0x0000000000002076      0x10e build/kernel/libcpu/arm/realview-a8-vmm/trap.o
                                        0x289 (size before relaxing)
 .debug_str     0x0000000000002184      0x380 build/kernel/components/finsh/shell.o
                                        0x9a3 (size before relaxing)
 .debug_str     0x0000000000002504       0x5a build/kernel/components/finsh/symbol.o
                                        0x24a (size before relaxing)
 .debug_str     0x000000000000255e      0x8e1 build/kernel/components/finsh/cmd.o
                                       0x1231 (size before relaxing)
 .debug_str     0x0000000000002e3f      0x12c build/kernel/components/finsh/msh_cmd.o
                                        0x2e3 (size before relaxing)
 .debug_str     0x0000000000002f6b      0x1b2 build/kernel/components/finsh/msh.o
                                        0x3f9 (size before relaxing)
 .debug_str     0x000000000000311d      0x105 build/kernel/components/finsh/finsh_compiler.o
                                        0x43e (size before relaxing)
 .debug_str     0x0000000000003222       0xc5 build/kernel/components/finsh/finsh_error.o
                                        0x230 (size before relaxing)
 .debug_str     0x00000000000032e7      0x144 build/kernel/components/finsh/finsh_heap.o
                                        0x42c (size before relaxing)
 .debug_str     0x000000000000342b       0x94 build/kernel/components/finsh/finsh_init.o
                                        0x333 (size before relaxing)
 .debug_str     0x00000000000034bf      0x10a build/kernel/components/finsh/finsh_node.o
                                        0x337 (size before relaxing)
 .debug_str     0x00000000000035c9      0x2f8 build/kernel/components/finsh/finsh_ops.o
                                        0x4a3 (size before relaxing)
 .debug_str     0x00000000000038c1      0x537 build/kernel/components/finsh/finsh_parser.o
                                        0x8dc (size before relaxing)
 .debug_str     0x0000000000003df8       0xd0 build/kernel/components/finsh/finsh_var.o
                                        0x40d (size before relaxing)
 .debug_str     0x0000000000003ec8       0x93 build/kernel/components/finsh/finsh_vm.o
                                        0x2f7 (size before relaxing)
 .debug_str     0x0000000000003f5b      0x15e build/kernel/components/finsh/finsh_token.o
                                        0x671 (size before relaxing)
 .debug_str     0x00000000000040b9      0x114 build/kernel/components/pthreads/clock_time.o
                                        0x58e (size before relaxing)
 .debug_str     0x00000000000041cd      0x268 build/kernel/components/pthreads/mqueue.o
                                        0x5b3 (size before relaxing)
 .debug_str     0x0000000000004435      0x310 build/kernel/components/pthreads/pthread.o
                                        0x71a (size before relaxing)
 .debug_str     0x0000000000004745      0x293 build/kernel/components/pthreads/pthread_attr.o
                                        0x4c4 (size before relaxing)
 .debug_str     0x00000000000049d8       0xd6 build/kernel/components/pthreads/pthread_tls.o
                                        0x58a (size before relaxing)
 .debug_str     0x0000000000004aae      0x157 build/kernel/components/pthreads/semaphore.o
                                        0x43f (size before relaxing)
 .debug_str     0x0000000000004c05       0x79 build/kernel/components/libc/newlib/libc.o
                                        0x1f3 (size before relaxing)
 .debug_str     0x0000000000004c7e      0x4d9 build/kernel/components/libc/newlib/syscalls.o
                                        0xa40 (size before relaxing)
 .debug_str     0x0000000000005157      0x33a build/kernel/components/utilities/logtrace/log_trace.o
                                        0x836 (size before relaxing)
 .debug_str     0x0000000000005491       0xc1 build/kernel/components/drivers/src/completion.o
                                        0x3fe (size before relaxing)
 .debug_str     0x0000000000005552      0x139 build/kernel/components/drivers/src/dataqueue.o
                                        0x49a (size before relaxing)
 .debug_str     0x000000000000568b      0x1ad build/kernel/components/drivers/serial/serial.o
                                        0x7a7 (size before relaxing)
 .debug_str     0x0000000000005838      0x169 /usr/lib/gcc/arm-none-eabi/4.8.2/../../../arm-none-eabi/lib/armv7-ar/thumb/softfp/libc.a(lib_a-atoi.o)
                                        0x5b6 (size before relaxing)
 .debug_str     0x00000000000059a1       0xa9 /usr/lib/gcc/arm-none-eabi/4.8.2/../../../arm-none-eabi/lib/armv7-ar/thumb/softfp/libc.a(lib_a-impure.o)
                                        0x5c3 (size before relaxing)
 .debug_str     0x0000000000005a4a       0xad /usr/lib/gcc/arm-none-eabi/4.8.2/../../../arm-none-eabi/lib/armv7-ar/thumb/softfp/libc.a(lib_a-memcpy-stub.o)
                                        0x22b (size before relaxing)
 .debug_str     0x0000000000005af7       0x8c /usr/lib/gcc/arm-none-eabi/4.8.2/../../../arm-none-eabi/lib/armv7-ar/thumb/softfp/libc.a(lib_a-memset.o)
                                        0x206 (size before relaxing)
 .debug_str     0x0000000000005b83       0x45 /usr/lib/gcc/arm-none-eabi/4.8.2/../../../arm-none-eabi/lib/armv7-ar/thumb/softfp/libc.a(lib_a-putenv.o)
                                        0x5b7 (size before relaxing)
 .debug_str     0x0000000000005bc8       0x66 /usr/lib/gcc/arm-none-eabi/4.8.2/../../../arm-none-eabi/lib/armv7-ar/thumb/softfp/libc.a(lib_a-putenv_r.o)
                                        0x5de (size before relaxing)
 .debug_str     0x0000000000005c2e       0x95 /usr/lib/gcc/arm-none-eabi/4.8.2/../../../arm-none-eabi/lib/armv7-ar/thumb/softfp/libc.a(lib_a-setenv_r.o)
                                        0x669 (size before relaxing)
 .debug_str     0x0000000000005cc3       0x34 /usr/lib/gcc/arm-none-eabi/4.8.2/../../../arm-none-eabi/lib/armv7-ar/thumb/softfp/libc.a(lib_a-strchr.o)
                                        0x1fd (size before relaxing)
 .debug_str     0x0000000000005cf7       0x3b /usr/lib/gcc/arm-none-eabi/4.8.2/../../../arm-none-eabi/lib/armv7-ar/thumb/softfp/libc.a(lib_a-strdup_r.o)
                                        0x5d4 (size before relaxing)
 .debug_str     0x0000000000005d32       0x3c /usr/lib/gcc/arm-none-eabi/4.8.2/../../../arm-none-eabi/lib/armv7-ar/thumb/softfp/libc.a(lib_a-strlen.o)
                                        0x1ff (size before relaxing)
 .debug_str     0x0000000000005d6e       0x35 /usr/lib/gcc/arm-none-eabi/4.8.2/../../../arm-none-eabi/lib/armv7-ar/thumb/softfp/libc.a(lib_a-strncmp.o)
                                        0x1f4 (size before relaxing)
 .debug_str     0x0000000000005da3       0x35 /usr/lib/gcc/arm-none-eabi/4.8.2/../../../arm-none-eabi/lib/armv7-ar/thumb/softfp/libc.a(lib_a-strncpy.o)
                                        0x21c (size before relaxing)
 .debug_str     0x0000000000005dd8       0x61 /usr/lib/gcc/arm-none-eabi/4.8.2/../../../arm-none-eabi/lib/armv7-ar/thumb/softfp/libc.a(lib_a-strtol.o)
                                        0x5e9 (size before relaxing)
 .debug_str     0x0000000000005e39       0x90 /usr/lib/gcc/arm-none-eabi/4.8.2/../../../arm-none-eabi/lib/armv7-ar/thumb/softfp/libc.a(lib_a-tzset.o)
                                        0x5b0 (size before relaxing)
 .debug_str     0x0000000000005ec9      0x126 /usr/lib/gcc/arm-none-eabi/4.8.2/../../../arm-none-eabi/lib/armv7-ar/thumb/softfp/libc.a(lib_a-tzset_r.o)
                                        0x6da (size before relaxing)
 .debug_str     0x0000000000005fef       0x32 /usr/lib/gcc/arm-none-eabi/4.8.2/../../../arm-none-eabi/lib/armv7-ar/thumb/softfp/libc.a(lib_a-tzvars.o)
                                        0x1fc (size before relaxing)
 .debug_str     0x0000000000006021       0x92 /usr/lib/gcc/arm-none-eabi/4.8.2/../../../arm-none-eabi/lib/armv7-ar/thumb/softfp/libc.a(lib_a-ctype_.o)
                                        0x174 (size before relaxing)
 .debug_str     0x00000000000060b3       0x41 /usr/lib/gcc/arm-none-eabi/4.8.2/../../../arm-none-eabi/lib/armv7-ar/thumb/softfp/libc.a(lib_a-environ.o)
                                        0x175 (size before relaxing)
 .debug_str     0x00000000000060f4       0x47 /usr/lib/gcc/arm-none-eabi/4.8.2/../../../arm-none-eabi/lib/armv7-ar/thumb/softfp/libc.a(lib_a-envlock.o)
                                        0x5c5 (size before relaxing)
 .debug_str     0x000000000000613b       0x89 /usr/lib/gcc/arm-none-eabi/4.8.2/../../../arm-none-eabi/lib/armv7-ar/thumb/softfp/libc.a(lib_a-errno.o)
                                        0x5ab (size before relaxing)
 .debug_str     0x00000000000061c4       0x36 /usr/lib/gcc/arm-none-eabi/4.8.2/../../../arm-none-eabi/lib/armv7-ar/thumb/softfp/libc.a(lib_a-getenv_r.o)
                                        0x600 (size before relaxing)
 .debug_str     0x00000000000061fa       0x35 /usr/lib/gcc/arm-none-eabi/4.8.2/../../../arm-none-eabi/lib/armv7-ar/thumb/softfp/libc.a(lib_a-gettzinfo.o)
                                        0x263 (size before relaxing)
 .debug_str     0x000000000000622f       0x39 /usr/lib/gcc/arm-none-eabi/4.8.2/../../../arm-none-eabi/lib/armv7-ar/thumb/softfp/libc.a(lib_a-malloc.o)
                                        0x5d7 (size before relaxing)
 .debug_str     0x0000000000006268       0xa1 /usr/lib/gcc/arm-none-eabi/4.8.2/../../../arm-none-eabi/lib/armv7-ar/thumb/softfp/libc.a(lib_a-mktm_r.o)
                                        0x34f (size before relaxing)
 .debug_str     0x0000000000006309       0xa5 /usr/lib/gcc/arm-none-eabi/4.8.2/../../../arm-none-eabi/lib/armv7-ar/thumb/softfp/libc.a(lib_a-siscanf.o)
                                        0x600 (size before relaxing)
 .debug_str     0x00000000000063ae       0x5f /usr/lib/gcc/arm-none-eabi/4.8.2/../../../arm-none-eabi/lib/armv7-ar/thumb/softfp/libc.a(lib_a-stdio.o)
                                        0x61e (size before relaxing)
 .debug_str     0x000000000000640d       0x3c /usr/lib/gcc/arm-none-eabi/4.8.2/../../../arm-none-eabi/lib/armv7-ar/thumb/softfp/libc.a(lib_a-strcpy.o)
                                        0x1f8 (size before relaxing)
 .debug_str     0x0000000000006449       0x40 /usr/lib/gcc/arm-none-eabi/4.8.2/../../../arm-none-eabi/lib/armv7-ar/thumb/softfp/libc.a(lib_a-strtoul.o)
                                        0x5ec (size before relaxing)
 .debug_str     0x0000000000006489      0x150 /usr/lib/gcc/arm-none-eabi/4.8.2/../../../arm-none-eabi/lib/armv7-ar/thumb/softfp/libc.a(lib_a-svfiscanf.o)
                                        0x769 (size before relaxing)
 .debug_str     0x00000000000065d9       0x43 /usr/lib/gcc/arm-none-eabi/4.8.2/../../../arm-none-eabi/lib/armv7-ar/thumb/softfp/libc.a(lib_a-tzlock.o)
                                        0x207 (size before relaxing)
 .debug_str     0x000000000000661c       0x66 /usr/lib/gcc/arm-none-eabi/4.8.2/../../../arm-none-eabi/lib/armv7-ar/thumb/softfp/libc.a(lib_a-ungetc.o)
                                        0x60e (size before relaxing)
 .debug_str     0x0000000000006682       0x35 /usr/lib/gcc/arm-none-eabi/4.8.2/../../../arm-none-eabi/lib/armv7-ar/thumb/softfp/libc.a(lib_a-iswspace.o)
                                        0x202 (size before relaxing)
 .debug_str     0x00000000000066b7      0x253 /usr/lib/gcc/arm-none-eabi/4.8.2/../../../arm-none-eabi/lib/armv7-ar/thumb/softfp/libc.a(lib_a-locale.o)
                                        0x820 (size before relaxing)
 .debug_str     0x000000000000690a       0x4d /usr/lib/gcc/arm-none-eabi/4.8.2/../../../arm-none-eabi/lib/armv7-ar/thumb/softfp/libc.a(lib_a-mbrtowc.o)
                                        0x5fa (size before relaxing)
 .debug_str     0x0000000000006957      0x123 /usr/lib/gcc/arm-none-eabi/4.8.2/../../../arm-none-eabi/lib/armv7-ar/thumb/softfp/libc.a(lib_a-mbtowc_r.o)
                                        0x60a (size before relaxing)
 .debug_str     0x0000000000006a7a       0x3a /usr/lib/gcc/arm-none-eabi/4.8.2/../../../arm-none-eabi/lib/armv7-ar/thumb/softfp/libc.a(lib_a-sccl.o)
                                        0x1f7 (size before relaxing)
 .debug_str     0x0000000000006ab4       0x37 /usr/lib/gcc/arm-none-eabi/4.8.2/../../../arm-none-eabi/lib/armv7-ar/thumb/softfp/libc.a(lib_a-strtoll_r.o)
                                        0x5da (size before relaxing)
 .debug_str     0x0000000000006aeb       0x38 /usr/lib/gcc/arm-none-eabi/4.8.2/../../../arm-none-eabi/lib/armv7-ar/thumb/softfp/libc.a(lib_a-strtoull_r.o)
                                        0x5dc (size before relaxing)
 .debug_str     0x0000000000006b23      0x1ae /usr/lib/gcc/arm-none-eabi/4.8.2/armv7-ar/thumb/softfp/libgcc.a(bpabi.o)
                                        0x1d3 (size before relaxing)
 .debug_str     0x0000000000006cd1      0x181 /usr/lib/gcc/arm-none-eabi/4.8.2/armv7-ar/thumb/softfp/libgcc.a(_divdi3.o)
                                        0x281 (size before relaxing)
 .debug_str     0x0000000000000000      0x282 /usr/lib/gcc/arm-none-eabi/4.8.2/armv7-ar/thumb/softfp/libgcc.a(_udivdi3.o)

.debug_frame    0x0000000000000000     0x4708
 .debug_frame   0x0000000000000000       0x48 build/bsp/applications/application.o
 .debug_frame   0x0000000000000048       0x48 build/bsp/applications/startup.o
 .debug_frame   0x0000000000000090       0x7c build/bsp/drivers/board.o
 .debug_frame   0x000000000000010c       0xd0 build/bsp/drivers/serial.o
 .debug_frame   0x00000000000001dc       0x90 build/kernel/src/clock.o
 .debug_frame   0x000000000000026c       0x90 build/kernel/src/components.o
 .debug_frame   0x00000000000002fc      0x15c build/kernel/src/device.o
 .debug_frame   0x0000000000000458       0xac build/kernel/src/idle.o
 .debug_frame   0x0000000000000504      0x524 build/kernel/src/ipc.o
 .debug_frame   0x0000000000000a28       0x60 build/kernel/src/irq.o
 .debug_frame   0x0000000000000a88      0x348 build/kernel/src/kservice.o
 .debug_frame   0x0000000000000dd0      0x11c build/kernel/src/mem.o
 .debug_frame   0x0000000000000eec      0x1a0 build/kernel/src/object.o
 .debug_frame   0x000000000000108c      0x180 build/kernel/src/scheduler.o
 .debug_frame   0x000000000000120c      0x244 build/kernel/src/thread.o
 .debug_frame   0x0000000000001450      0x220 build/kernel/src/timer.o
 .debug_frame   0x0000000000001670       0x2c build/kernel/libcpu/arm/realview-a8-vmm/cpu.o
 .debug_frame   0x000000000000169c      0x19c build/kernel/libcpu/arm/realview-a8-vmm/gic.o
 .debug_frame   0x0000000000001838       0xd4 build/kernel/libcpu/arm/realview-a8-vmm/interrupt.o
 .debug_frame   0x000000000000190c       0x28 build/kernel/libcpu/arm/realview-a8-vmm/stack.o
 .debug_frame   0x0000000000001934       0xf0 build/kernel/libcpu/arm/realview-a8-vmm/trap.o
 .debug_frame   0x0000000000001a24      0x198 build/kernel/components/finsh/shell.o
 .debug_frame   0x0000000000001bbc      0x310 build/kernel/components/finsh/cmd.o
 .debug_frame   0x0000000000001ecc       0x60 build/kernel/components/finsh/msh_cmd.o
 .debug_frame   0x0000000000001f2c      0x114 build/kernel/components/finsh/msh.o
 .debug_frame   0x0000000000002040       0x64 build/kernel/components/finsh/finsh_compiler.o
 .debug_frame   0x00000000000020a4       0x70 build/kernel/components/finsh/finsh_error.o
 .debug_frame   0x0000000000002114       0xe0 build/kernel/components/finsh/finsh_heap.o
 .debug_frame   0x00000000000021f4       0x7c build/kernel/components/finsh/finsh_init.o
 .debug_frame   0x0000000000002270       0xf0 build/kernel/components/finsh/finsh_node.o
 .debug_frame   0x0000000000002360      0x4d4 build/kernel/components/finsh/finsh_ops.o
 .debug_frame   0x0000000000002834      0x240 build/kernel/components/finsh/finsh_parser.o
 .debug_frame   0x0000000000002a74       0xbc build/kernel/components/finsh/finsh_var.o
 .debug_frame   0x0000000000002b30       0x68 build/kernel/components/finsh/finsh_vm.o
 .debug_frame   0x0000000000002b98      0x194 build/kernel/components/finsh/finsh_token.o
 .debug_frame   0x0000000000002d2c       0x9c build/kernel/components/pthreads/clock_time.o
 .debug_frame   0x0000000000002dc8      0x19c build/kernel/components/pthreads/mqueue.o
 .debug_frame   0x0000000000002f64      0x1e4 build/kernel/components/pthreads/pthread.o
 .debug_frame   0x0000000000003148      0x1f8 build/kernel/components/pthreads/pthread_attr.o
 .debug_frame   0x0000000000003340       0xb8 build/kernel/components/pthreads/pthread_tls.o
 .debug_frame   0x00000000000033f8      0x19c build/kernel/components/pthreads/semaphore.o
 .debug_frame   0x0000000000003594       0x2c build/kernel/components/libc/newlib/libc.o
 .debug_frame   0x00000000000035c0      0x2b4 build/kernel/components/libc/newlib/syscalls.o
 .debug_frame   0x0000000000003874      0x1fc build/kernel/components/utilities/logtrace/log_trace.o
 .debug_frame   0x0000000000003a70       0xac build/kernel/components/drivers/src/completion.o
 .debug_frame   0x0000000000003b1c       0xe8 build/kernel/components/drivers/src/dataqueue.o
 .debug_frame   0x0000000000003c04      0x198 build/kernel/components/drivers/serial/serial.o
 .debug_frame   0x0000000000003d9c       0x30 /usr/lib/gcc/arm-none-eabi/4.8.2/../../../arm-none-eabi/lib/armv7-ar/thumb/softfp/libc.a(lib_a-atoi.o)
 .debug_frame   0x0000000000003dcc       0x2c /usr/lib/gcc/arm-none-eabi/4.8.2/../../../arm-none-eabi/lib/armv7-ar/thumb/softfp/libc.a(lib_a-memcpy-stub.o)
 .debug_frame   0x0000000000003df8       0x2c /usr/lib/gcc/arm-none-eabi/4.8.2/../../../arm-none-eabi/lib/armv7-ar/thumb/softfp/libc.a(lib_a-memset.o)
 .debug_frame   0x0000000000003e24       0x20 /usr/lib/gcc/arm-none-eabi/4.8.2/../../../arm-none-eabi/lib/armv7-ar/thumb/softfp/libc.a(lib_a-putenv.o)
 .debug_frame   0x0000000000003e44       0x2c /usr/lib/gcc/arm-none-eabi/4.8.2/../../../arm-none-eabi/lib/armv7-ar/thumb/softfp/libc.a(lib_a-putenv_r.o)
 .debug_frame   0x0000000000003e70       0x5c /usr/lib/gcc/arm-none-eabi/4.8.2/../../../arm-none-eabi/lib/armv7-ar/thumb/softfp/libc.a(lib_a-setenv_r.o)
 .debug_frame   0x0000000000003ecc       0x2c /usr/lib/gcc/arm-none-eabi/4.8.2/../../../arm-none-eabi/lib/armv7-ar/thumb/softfp/libc.a(lib_a-strchr.o)
 .debug_frame   0x0000000000003ef8       0x2c /usr/lib/gcc/arm-none-eabi/4.8.2/../../../arm-none-eabi/lib/armv7-ar/thumb/softfp/libc.a(lib_a-strdup_r.o)
 .debug_frame   0x0000000000003f24       0x20 /usr/lib/gcc/arm-none-eabi/4.8.2/../../../arm-none-eabi/lib/armv7-ar/thumb/softfp/libc.a(lib_a-strlen.o)
 .debug_frame   0x0000000000003f44       0x2c /usr/lib/gcc/arm-none-eabi/4.8.2/../../../arm-none-eabi/lib/armv7-ar/thumb/softfp/libc.a(lib_a-strncmp.o)
 .debug_frame   0x0000000000003f70       0x2c /usr/lib/gcc/arm-none-eabi/4.8.2/../../../arm-none-eabi/lib/armv7-ar/thumb/softfp/libc.a(lib_a-strncpy.o)
 .debug_frame   0x0000000000003f9c       0x50 /usr/lib/gcc/arm-none-eabi/4.8.2/../../../arm-none-eabi/lib/armv7-ar/thumb/softfp/libc.a(lib_a-strtol.o)
 .debug_frame   0x0000000000003fec       0x20 /usr/lib/gcc/arm-none-eabi/4.8.2/../../../arm-none-eabi/lib/armv7-ar/thumb/softfp/libc.a(lib_a-tzset.o)
 .debug_frame   0x000000000000400c       0x38 /usr/lib/gcc/arm-none-eabi/4.8.2/../../../arm-none-eabi/lib/armv7-ar/thumb/softfp/libc.a(lib_a-tzset_r.o)
 .debug_frame   0x0000000000004044       0x30 /usr/lib/gcc/arm-none-eabi/4.8.2/../../../arm-none-eabi/lib/armv7-ar/thumb/softfp/libc.a(lib_a-envlock.o)
 .debug_frame   0x0000000000004074       0x20 /usr/lib/gcc/arm-none-eabi/4.8.2/../../../arm-none-eabi/lib/armv7-ar/thumb/softfp/libc.a(lib_a-errno.o)
 .debug_frame   0x0000000000004094       0x4c /usr/lib/gcc/arm-none-eabi/4.8.2/../../../arm-none-eabi/lib/armv7-ar/thumb/softfp/libc.a(lib_a-getenv_r.o)
 .debug_frame   0x00000000000040e0       0x20 /usr/lib/gcc/arm-none-eabi/4.8.2/../../../arm-none-eabi/lib/armv7-ar/thumb/softfp/libc.a(lib_a-gettzinfo.o)
 .debug_frame   0x0000000000004100       0x30 /usr/lib/gcc/arm-none-eabi/4.8.2/../../../arm-none-eabi/lib/armv7-ar/thumb/softfp/libc.a(lib_a-malloc.o)
 .debug_frame   0x0000000000004130       0x60 /usr/lib/gcc/arm-none-eabi/4.8.2/../../../arm-none-eabi/lib/armv7-ar/thumb/softfp/libc.a(lib_a-mktm_r.o)
 .debug_frame   0x0000000000004190       0x60 /usr/lib/gcc/arm-none-eabi/4.8.2/../../../arm-none-eabi/lib/armv7-ar/thumb/softfp/libc.a(lib_a-siscanf.o)
 .debug_frame   0x00000000000041f0       0x80 /usr/lib/gcc/arm-none-eabi/4.8.2/../../../arm-none-eabi/lib/armv7-ar/thumb/softfp/libc.a(lib_a-stdio.o)
 .debug_frame   0x0000000000004270       0x20 /usr/lib/gcc/arm-none-eabi/4.8.2/../../../arm-none-eabi/lib/armv7-ar/thumb/softfp/libc.a(lib_a-strcpy.o)
 .debug_frame   0x0000000000004290       0x50 /usr/lib/gcc/arm-none-eabi/4.8.2/../../../arm-none-eabi/lib/armv7-ar/thumb/softfp/libc.a(lib_a-strtoul.o)
 .debug_frame   0x00000000000042e0       0x9c /usr/lib/gcc/arm-none-eabi/4.8.2/../../../arm-none-eabi/lib/armv7-ar/thumb/softfp/libc.a(lib_a-svfiscanf.o)
 .debug_frame   0x000000000000437c       0x30 /usr/lib/gcc/arm-none-eabi/4.8.2/../../../arm-none-eabi/lib/armv7-ar/thumb/softfp/libc.a(lib_a-tzlock.o)
 .debug_frame   0x00000000000043ac       0x60 /usr/lib/gcc/arm-none-eabi/4.8.2/../../../arm-none-eabi/lib/armv7-ar/thumb/softfp/libc.a(lib_a-ungetc.o)
 .debug_frame   0x000000000000440c       0x20 /usr/lib/gcc/arm-none-eabi/4.8.2/../../../arm-none-eabi/lib/armv7-ar/thumb/softfp/libc.a(lib_a-iswspace.o)
 .debug_frame   0x000000000000442c       0x98 /usr/lib/gcc/arm-none-eabi/4.8.2/../../../arm-none-eabi/lib/armv7-ar/thumb/softfp/libc.a(lib_a-locale.o)
 .debug_frame   0x00000000000044c4       0x58 /usr/lib/gcc/arm-none-eabi/4.8.2/../../../arm-none-eabi/lib/armv7-ar/thumb/softfp/libc.a(lib_a-mbrtowc.o)
 .debug_frame   0x000000000000451c       0x48 /usr/lib/gcc/arm-none-eabi/4.8.2/../../../arm-none-eabi/lib/armv7-ar/thumb/softfp/libc.a(lib_a-mbtowc_r.o)
 .debug_frame   0x0000000000004564       0x2c /usr/lib/gcc/arm-none-eabi/4.8.2/../../../arm-none-eabi/lib/armv7-ar/thumb/softfp/libc.a(lib_a-sccl.o)
 .debug_frame   0x0000000000004590       0x38 /usr/lib/gcc/arm-none-eabi/4.8.2/../../../arm-none-eabi/lib/armv7-ar/thumb/softfp/libc.a(lib_a-strtoll_r.o)
 .debug_frame   0x00000000000045c8       0x38 /usr/lib/gcc/arm-none-eabi/4.8.2/../../../arm-none-eabi/lib/armv7-ar/thumb/softfp/libc.a(lib_a-strtoull_r.o)
 .debug_frame   0x0000000000004600       0x20 /usr/lib/gcc/arm-none-eabi/4.8.2/armv7-ar/thumb/softfp/libgcc.a(_udivsi3.o)
 .debug_frame   0x0000000000004620       0x20 /usr/lib/gcc/arm-none-eabi/4.8.2/armv7-ar/thumb/softfp/libgcc.a(_divsi3.o)
 .debug_frame   0x0000000000004640       0x58 /usr/lib/gcc/arm-none-eabi/4.8.2/armv7-ar/thumb/softfp/libgcc.a(bpabi.o)
 .debug_frame   0x0000000000004698       0x38 /usr/lib/gcc/arm-none-eabi/4.8.2/armv7-ar/thumb/softfp/libgcc.a(_divdi3.o)
 .debug_frame   0x00000000000046d0       0x38 /usr/lib/gcc/arm-none-eabi/4.8.2/armv7-ar/thumb/softfp/libgcc.a(_udivdi3.o)

.debug_ranges   0x0000000000000000      0x790
 .debug_ranges  0x0000000000000000       0x18 build/kernel/src/mem.o
 .debug_ranges  0x0000000000000018       0x30 build/kernel/src/thread.o
 .debug_ranges  0x0000000000000048       0x20 build/kernel/libcpu/arm/realview-a8-vmm/context_gcc.o
 .debug_ranges  0x0000000000000068       0x20 build/kernel/libcpu/arm/realview-a8-vmm/start_gcc.o
 .debug_ranges  0x0000000000000088       0x18 build/kernel/components/finsh/msh.o
 .debug_ranges  0x00000000000000a0       0x60 build/kernel/components/finsh/finsh_compiler.o
 .debug_ranges  0x0000000000000100       0x30 build/kernel/components/drivers/serial/serial.o
 .debug_ranges  0x0000000000000130       0x18 /usr/lib/gcc/arm-none-eabi/4.8.2/../../../arm-none-eabi/lib/armv7-ar/thumb/softfp/libc.a(lib_a-atoi.o)
 .debug_ranges  0x0000000000000148       0x10 /usr/lib/gcc/arm-none-eabi/4.8.2/../../../arm-none-eabi/lib/armv7-ar/thumb/softfp/libc.a(lib_a-memcpy-stub.o)
 .debug_ranges  0x0000000000000158       0x10 /usr/lib/gcc/arm-none-eabi/4.8.2/../../../arm-none-eabi/lib/armv7-ar/thumb/softfp/libc.a(lib_a-memset.o)
 .debug_ranges  0x0000000000000168       0x10 /usr/lib/gcc/arm-none-eabi/4.8.2/../../../arm-none-eabi/lib/armv7-ar/thumb/softfp/libc.a(lib_a-putenv.o)
 .debug_ranges  0x0000000000000178       0x10 /usr/lib/gcc/arm-none-eabi/4.8.2/../../../arm-none-eabi/lib/armv7-ar/thumb/softfp/libc.a(lib_a-putenv_r.o)
 .debug_ranges  0x0000000000000188       0x18 /usr/lib/gcc/arm-none-eabi/4.8.2/../../../arm-none-eabi/lib/armv7-ar/thumb/softfp/libc.a(lib_a-setenv_r.o)
 .debug_ranges  0x00000000000001a0       0x10 /usr/lib/gcc/arm-none-eabi/4.8.2/../../../arm-none-eabi/lib/armv7-ar/thumb/softfp/libc.a(lib_a-strchr.o)
 .debug_ranges  0x00000000000001b0       0x10 /usr/lib/gcc/arm-none-eabi/4.8.2/../../../arm-none-eabi/lib/armv7-ar/thumb/softfp/libc.a(lib_a-strdup_r.o)
 .debug_ranges  0x00000000000001c0       0x10 /usr/lib/gcc/arm-none-eabi/4.8.2/../../../arm-none-eabi/lib/armv7-ar/thumb/softfp/libc.a(lib_a-strlen.o)
 .debug_ranges  0x00000000000001d0       0x10 /usr/lib/gcc/arm-none-eabi/4.8.2/../../../arm-none-eabi/lib/armv7-ar/thumb/softfp/libc.a(lib_a-strncmp.o)
 .debug_ranges  0x00000000000001e0       0x10 /usr/lib/gcc/arm-none-eabi/4.8.2/../../../arm-none-eabi/lib/armv7-ar/thumb/softfp/libc.a(lib_a-strncpy.o)
 .debug_ranges  0x00000000000001f0       0x18 /usr/lib/gcc/arm-none-eabi/4.8.2/../../../arm-none-eabi/lib/armv7-ar/thumb/softfp/libc.a(lib_a-strtol.o)
 .debug_ranges  0x0000000000000208       0x10 /usr/lib/gcc/arm-none-eabi/4.8.2/../../../arm-none-eabi/lib/armv7-ar/thumb/softfp/libc.a(lib_a-tzset.o)
 .debug_ranges  0x0000000000000218       0x38 /usr/lib/gcc/arm-none-eabi/4.8.2/../../../arm-none-eabi/lib/armv7-ar/thumb/softfp/libc.a(lib_a-tzset_r.o)
 .debug_ranges  0x0000000000000250       0x18 /usr/lib/gcc/arm-none-eabi/4.8.2/../../../arm-none-eabi/lib/armv7-ar/thumb/softfp/libc.a(lib_a-envlock.o)
 .debug_ranges  0x0000000000000268       0x10 /usr/lib/gcc/arm-none-eabi/4.8.2/../../../arm-none-eabi/lib/armv7-ar/thumb/softfp/libc.a(lib_a-errno.o)
 .debug_ranges  0x0000000000000278       0x18 /usr/lib/gcc/arm-none-eabi/4.8.2/../../../arm-none-eabi/lib/armv7-ar/thumb/softfp/libc.a(lib_a-getenv_r.o)
 .debug_ranges  0x0000000000000290       0x10 /usr/lib/gcc/arm-none-eabi/4.8.2/../../../arm-none-eabi/lib/armv7-ar/thumb/softfp/libc.a(lib_a-gettzinfo.o)
 .debug_ranges  0x00000000000002a0       0x18 /usr/lib/gcc/arm-none-eabi/4.8.2/../../../arm-none-eabi/lib/armv7-ar/thumb/softfp/libc.a(lib_a-malloc.o)
 .debug_ranges  0x00000000000002b8       0x80 /usr/lib/gcc/arm-none-eabi/4.8.2/../../../arm-none-eabi/lib/armv7-ar/thumb/softfp/libc.a(lib_a-mktm_r.o)
 .debug_ranges  0x0000000000000338       0x18 /usr/lib/gcc/arm-none-eabi/4.8.2/../../../arm-none-eabi/lib/armv7-ar/thumb/softfp/libc.a(lib_a-siscanf.o)
 .debug_ranges  0x0000000000000350       0x30 /usr/lib/gcc/arm-none-eabi/4.8.2/../../../arm-none-eabi/lib/armv7-ar/thumb/softfp/libc.a(lib_a-stdio.o)
 .debug_ranges  0x0000000000000380       0x10 /usr/lib/gcc/arm-none-eabi/4.8.2/../../../arm-none-eabi/lib/armv7-ar/thumb/softfp/libc.a(lib_a-strcpy.o)
 .debug_ranges  0x0000000000000390       0x18 /usr/lib/gcc/arm-none-eabi/4.8.2/../../../arm-none-eabi/lib/armv7-ar/thumb/softfp/libc.a(lib_a-strtoul.o)
 .debug_ranges  0x00000000000003a8      0x140 /usr/lib/gcc/arm-none-eabi/4.8.2/../../../arm-none-eabi/lib/armv7-ar/thumb/softfp/libc.a(lib_a-svfiscanf.o)
 .debug_ranges  0x00000000000004e8       0x18 /usr/lib/gcc/arm-none-eabi/4.8.2/../../../arm-none-eabi/lib/armv7-ar/thumb/softfp/libc.a(lib_a-tzlock.o)
 .debug_ranges  0x0000000000000500       0x38 /usr/lib/gcc/arm-none-eabi/4.8.2/../../../arm-none-eabi/lib/armv7-ar/thumb/softfp/libc.a(lib_a-ungetc.o)
 .debug_ranges  0x0000000000000538       0x10 /usr/lib/gcc/arm-none-eabi/4.8.2/../../../arm-none-eabi/lib/armv7-ar/thumb/softfp/libc.a(lib_a-iswspace.o)
 .debug_ranges  0x0000000000000548       0x48 /usr/lib/gcc/arm-none-eabi/4.8.2/../../../arm-none-eabi/lib/armv7-ar/thumb/softfp/libc.a(lib_a-locale.o)
 .debug_ranges  0x0000000000000590       0x18 /usr/lib/gcc/arm-none-eabi/4.8.2/../../../arm-none-eabi/lib/armv7-ar/thumb/softfp/libc.a(lib_a-mbrtowc.o)
 .debug_ranges  0x00000000000005a8       0x18 /usr/lib/gcc/arm-none-eabi/4.8.2/../../../arm-none-eabi/lib/armv7-ar/thumb/softfp/libc.a(lib_a-mbtowc_r.o)
 .debug_ranges  0x00000000000005c0       0x10 /usr/lib/gcc/arm-none-eabi/4.8.2/../../../arm-none-eabi/lib/armv7-ar/thumb/softfp/libc.a(lib_a-sccl.o)
 .debug_ranges  0x00000000000005d0       0x10 /usr/lib/gcc/arm-none-eabi/4.8.2/../../../arm-none-eabi/lib/armv7-ar/thumb/softfp/libc.a(lib_a-strtoll_r.o)
 .debug_ranges  0x00000000000005e0       0x10 /usr/lib/gcc/arm-none-eabi/4.8.2/../../../arm-none-eabi/lib/armv7-ar/thumb/softfp/libc.a(lib_a-strtoull_r.o)
 .debug_ranges  0x00000000000005f0       0xc0 /usr/lib/gcc/arm-none-eabi/4.8.2/armv7-ar/thumb/softfp/libgcc.a(_divdi3.o)
 .debug_ranges  0x00000000000006b0       0xe0 /usr/lib/gcc/arm-none-eabi/4.8.2/armv7-ar/thumb/softfp/libgcc.a(_udivdi3.o)

Cross Reference Table

Symbol                                            File
OP_add_byte                                       build/kernel/components/finsh/finsh_ops.o
OP_add_dword                                      build/kernel/components/finsh/finsh_ops.o
OP_add_word                                       build/kernel/components/finsh/finsh_ops.o
OP_and_byte                                       build/kernel/components/finsh/finsh_ops.o
OP_and_dword                                      build/kernel/components/finsh/finsh_ops.o
OP_and_word                                       build/kernel/components/finsh/finsh_ops.o
OP_bw_byte                                        build/kernel/components/finsh/finsh_ops.o
OP_bw_dword                                       build/kernel/components/finsh/finsh_ops.o
OP_bw_word                                        build/kernel/components/finsh/finsh_ops.o
OP_call                                           build/kernel/components/finsh/finsh_ops.o
OP_div_byte                                       build/kernel/components/finsh/finsh_ops.o
OP_div_dword                                      build/kernel/components/finsh/finsh_ops.o
OP_div_word                                       build/kernel/components/finsh/finsh_ops.o
OP_ld_byte                                        build/kernel/components/finsh/finsh_ops.o
OP_ld_dword                                       build/kernel/components/finsh/finsh_ops.o
OP_ld_value_byte                                  build/kernel/components/finsh/finsh_ops.o
OP_ld_value_byte_stack                            build/kernel/components/finsh/finsh_ops.o
OP_ld_value_dword                                 build/kernel/components/finsh/finsh_ops.o
OP_ld_value_dword_stack                           build/kernel/components/finsh/finsh_ops.o
OP_ld_value_word                                  build/kernel/components/finsh/finsh_ops.o
OP_ld_value_word_stack                            build/kernel/components/finsh/finsh_ops.o
OP_ld_word                                        build/kernel/components/finsh/finsh_ops.o
OP_mod_byte                                       build/kernel/components/finsh/finsh_ops.o
OP_mod_dword                                      build/kernel/components/finsh/finsh_ops.o
OP_mod_word                                       build/kernel/components/finsh/finsh_ops.o
OP_mul_byte                                       build/kernel/components/finsh/finsh_ops.o
OP_mul_dword                                      build/kernel/components/finsh/finsh_ops.o
OP_mul_word                                       build/kernel/components/finsh/finsh_ops.o
OP_no_op                                          build/kernel/components/finsh/finsh_ops.o
OP_or_byte                                        build/kernel/components/finsh/finsh_ops.o
OP_or_dword                                       build/kernel/components/finsh/finsh_ops.o
OP_or_word                                        build/kernel/components/finsh/finsh_ops.o
OP_pop                                            build/kernel/components/finsh/finsh_ops.o
OP_shl_byte                                       build/kernel/components/finsh/finsh_ops.o
OP_shl_dword                                      build/kernel/components/finsh/finsh_ops.o
OP_shl_word                                       build/kernel/components/finsh/finsh_ops.o
OP_shr_byte                                       build/kernel/components/finsh/finsh_ops.o
OP_shr_dword                                      build/kernel/components/finsh/finsh_ops.o
OP_shr_word                                       build/kernel/components/finsh/finsh_ops.o
OP_st_byte                                        build/kernel/components/finsh/finsh_ops.o
OP_st_dword                                       build/kernel/components/finsh/finsh_ops.o
OP_st_word                                        build/kernel/components/finsh/finsh_ops.o
OP_sub_byte                                       build/kernel/components/finsh/finsh_ops.o
OP_sub_dword                                      build/kernel/components/finsh/finsh_ops.o
OP_sub_word                                       build/kernel/components/finsh/finsh_ops.o
OP_xor_byte                                       build/kernel/components/finsh/finsh_ops.o
OP_xor_dword                                      build/kernel/components/finsh/finsh_ops.o
OP_xor_word                                       build/kernel/components/finsh/finsh_ops.o
VECTOR_BASE                                       build/kernel/libcpu/arm/realview-a8-vmm/interrupt.o
_ITM_deregisterTMCloneTable                       /usr/lib/gcc/arm-none-eabi/4.8.2/armv7-ar/thumb/softfp/crtbegin.o
_ITM_registerTMCloneTable                         /usr/lib/gcc/arm-none-eabi/4.8.2/armv7-ar/thumb/softfp/crtbegin.o
_Jv_RegisterClasses                               /usr/lib/gcc/arm-none-eabi/4.8.2/armv7-ar/thumb/softfp/crtbegin.o
_PathLocale                                       /usr/lib/gcc/arm-none-eabi/4.8.2/../../../arm-none-eabi/lib/armv7-ar/thumb/softfp/libc.a(lib_a-locale.o)
__TMC_END__                                       /usr/lib/gcc/arm-none-eabi/4.8.2/armv7-ar/thumb/softfp/crtend.o
                                                  /usr/lib/gcc/arm-none-eabi/4.8.2/armv7-ar/thumb/softfp/crtbegin.o
__aeabi_idiv                                      /usr/lib/gcc/arm-none-eabi/4.8.2/armv7-ar/thumb/softfp/libgcc.a(_divsi3.o)
                                                  build/kernel/components/finsh/finsh_ops.o
__aeabi_idiv0                                     /usr/lib/gcc/arm-none-eabi/4.8.2/armv7-ar/thumb/softfp/libgcc.a(_dvmd_tls.o)
                                                  /usr/lib/gcc/arm-none-eabi/4.8.2/armv7-ar/thumb/softfp/libgcc.a(_divsi3.o)
                                                  /usr/lib/gcc/arm-none-eabi/4.8.2/armv7-ar/thumb/softfp/libgcc.a(_udivsi3.o)
__aeabi_idivmod                                   /usr/lib/gcc/arm-none-eabi/4.8.2/armv7-ar/thumb/softfp/libgcc.a(_divsi3.o)
                                                  build/kernel/components/finsh/finsh_ops.o
__aeabi_ldiv0                                     /usr/lib/gcc/arm-none-eabi/4.8.2/armv7-ar/thumb/softfp/libgcc.a(_dvmd_tls.o)
                                                  /usr/lib/gcc/arm-none-eabi/4.8.2/armv7-ar/thumb/softfp/libgcc.a(_aeabi_uldivmod.o)
__aeabi_uidiv                                     /usr/lib/gcc/arm-none-eabi/4.8.2/armv7-ar/thumb/softfp/libgcc.a(_udivsi3.o)
                                                  /usr/lib/gcc/arm-none-eabi/4.8.2/armv7-ar/thumb/softfp/libgcc.a(_udivdi3.o)
                                                  /usr/lib/gcc/arm-none-eabi/4.8.2/armv7-ar/thumb/softfp/libgcc.a(_divdi3.o)
                                                  /usr/lib/gcc/arm-none-eabi/4.8.2/../../../arm-none-eabi/lib/armv7-ar/thumb/softfp/libc.a(lib_a-svfiscanf.o)
                                                  /usr/lib/gcc/arm-none-eabi/4.8.2/../../../arm-none-eabi/lib/armv7-ar/thumb/softfp/libc.a(lib_a-strtoul.o)
                                                  /usr/lib/gcc/arm-none-eabi/4.8.2/../../../arm-none-eabi/lib/armv7-ar/thumb/softfp/libc.a(lib_a-strtol.o)
                                                  build/kernel/components/finsh/finsh_ops.o
                                                  build/kernel/src/mempool.o
                                                  build/kernel/src/ipc.o
__aeabi_uidivmod                                  /usr/lib/gcc/arm-none-eabi/4.8.2/armv7-ar/thumb/softfp/libgcc.a(_udivsi3.o)
                                                  /usr/lib/gcc/arm-none-eabi/4.8.2/armv7-ar/thumb/softfp/libgcc.a(_udivdi3.o)
                                                  /usr/lib/gcc/arm-none-eabi/4.8.2/armv7-ar/thumb/softfp/libgcc.a(_divdi3.o)
                                                  /usr/lib/gcc/arm-none-eabi/4.8.2/../../../arm-none-eabi/lib/armv7-ar/thumb/softfp/libc.a(lib_a-strtoul.o)
                                                  /usr/lib/gcc/arm-none-eabi/4.8.2/../../../arm-none-eabi/lib/armv7-ar/thumb/softfp/libc.a(lib_a-strtol.o)
                                                  build/kernel/components/finsh/finsh_ops.o
__aeabi_uldivmod                                  /usr/lib/gcc/arm-none-eabi/4.8.2/armv7-ar/thumb/softfp/libgcc.a(_aeabi_uldivmod.o)
                                                  /usr/lib/gcc/arm-none-eabi/4.8.2/../../../arm-none-eabi/lib/armv7-ar/thumb/softfp/libc.a(lib_a-strtoull_r.o)
                                                  /usr/lib/gcc/arm-none-eabi/4.8.2/../../../arm-none-eabi/lib/armv7-ar/thumb/softfp/libc.a(lib_a-strtoll_r.o)
__ascii_mbtowc                                    /usr/lib/gcc/arm-none-eabi/4.8.2/../../../arm-none-eabi/lib/armv7-ar/thumb/softfp/libc.a(lib_a-mbtowc_r.o)
__bss_end                                         build/kernel/libcpu/arm/realview-a8-vmm/start_gcc.o
                                                  build/bsp/applications/startup.o
__bss_end__                                       /usr/lib/gcc/arm-none-eabi/4.8.2/../../../arm-none-eabi/lib/armv7-ar/thumb/softfp/crt0.o
__bss_start                                       build/kernel/libcpu/arm/realview-a8-vmm/start_gcc.o
__bss_start__                                     /usr/lib/gcc/arm-none-eabi/4.8.2/../../../arm-none-eabi/lib/armv7-ar/thumb/softfp/crt0.o
__call_exitprocs                                  /usr/lib/gcc/arm-none-eabi/4.8.2/../../../arm-none-eabi/lib/armv7-ar/thumb/softfp/libc.a(lib_a-__call_atexit.o)
                                                  /usr/lib/gcc/arm-none-eabi/4.8.2/../../../arm-none-eabi/lib/armv7-ar/thumb/softfp/libc.a(lib_a-exit.o)
__ctors_end__                                     build/kernel/libcpu/arm/realview-a8-vmm/start_gcc.o
__ctors_start__                                   build/kernel/libcpu/arm/realview-a8-vmm/start_gcc.o
__ctype_ptr__                                     /usr/lib/gcc/arm-none-eabi/4.8.2/../../../arm-none-eabi/lib/armv7-ar/thumb/softfp/libc.a(lib_a-ctype_.o)
                                                  /usr/lib/gcc/arm-none-eabi/4.8.2/../../../arm-none-eabi/lib/armv7-ar/thumb/softfp/libc.a(lib_a-strtoull_r.o)
                                                  /usr/lib/gcc/arm-none-eabi/4.8.2/../../../arm-none-eabi/lib/armv7-ar/thumb/softfp/libc.a(lib_a-strtoll_r.o)
                                                  /usr/lib/gcc/arm-none-eabi/4.8.2/../../../arm-none-eabi/lib/armv7-ar/thumb/softfp/libc.a(lib_a-iswspace.o)
                                                  /usr/lib/gcc/arm-none-eabi/4.8.2/../../../arm-none-eabi/lib/armv7-ar/thumb/softfp/libc.a(lib_a-svfiscanf.o)
                                                  /usr/lib/gcc/arm-none-eabi/4.8.2/../../../arm-none-eabi/lib/armv7-ar/thumb/softfp/libc.a(lib_a-strtoul.o)
                                                  /usr/lib/gcc/arm-none-eabi/4.8.2/../../../arm-none-eabi/lib/armv7-ar/thumb/softfp/libc.a(lib_a-strtol.o)
__deregister_frame_info                           /usr/lib/gcc/arm-none-eabi/4.8.2/armv7-ar/thumb/softfp/crtbegin.o
__div0                                            build/kernel/libcpu/arm/common/div0.o
__divdi3                                          /usr/lib/gcc/arm-none-eabi/4.8.2/armv7-ar/thumb/softfp/libgcc.a(_divdi3.o)
                                                  /usr/lib/gcc/arm-none-eabi/4.8.2/armv7-ar/thumb/softfp/libgcc.a(bpabi.o)
__divsi3                                          /usr/lib/gcc/arm-none-eabi/4.8.2/armv7-ar/thumb/softfp/libgcc.a(_divsi3.o)
__dso_handle                                      /usr/lib/gcc/arm-none-eabi/4.8.2/armv7-ar/thumb/softfp/crtbegin.o
__env_lock                                        /usr/lib/gcc/arm-none-eabi/4.8.2/../../../arm-none-eabi/lib/armv7-ar/thumb/softfp/libc.a(lib_a-envlock.o)
                                                  /usr/lib/gcc/arm-none-eabi/4.8.2/../../../arm-none-eabi/lib/armv7-ar/thumb/softfp/libc.a(lib_a-getenv_r.o)
                                                  /usr/lib/gcc/arm-none-eabi/4.8.2/../../../arm-none-eabi/lib/armv7-ar/thumb/softfp/libc.a(lib_a-setenv_r.o)
__env_unlock                                      /usr/lib/gcc/arm-none-eabi/4.8.2/../../../arm-none-eabi/lib/armv7-ar/thumb/softfp/libc.a(lib_a-envlock.o)
                                                  /usr/lib/gcc/arm-none-eabi/4.8.2/../../../arm-none-eabi/lib/armv7-ar/thumb/softfp/libc.a(lib_a-getenv_r.o)
                                                  /usr/lib/gcc/arm-none-eabi/4.8.2/../../../arm-none-eabi/lib/armv7-ar/thumb/softfp/libc.a(lib_a-setenv_r.o)
__errno                                           /usr/lib/gcc/arm-none-eabi/4.8.2/../../../arm-none-eabi/lib/armv7-ar/thumb/softfp/libc.a(lib_a-errno.o)
                                                  /usr/lib/gcc/arm-none-eabi/4.8.2/../../../arm-none-eabi/lib/armv7-ar/thumb/softfp/libc.a(lib_a-setenv_r.o)
__fini_array_end                                  /usr/lib/gcc/arm-none-eabi/4.8.2/../../../arm-none-eabi/lib/armv7-ar/thumb/softfp/libc.a(lib_a-fini.o)
__fini_array_start                                /usr/lib/gcc/arm-none-eabi/4.8.2/../../../arm-none-eabi/lib/armv7-ar/thumb/softfp/libc.a(lib_a-fini.o)
__fp_lock_all                                     /usr/lib/gcc/arm-none-eabi/4.8.2/../../../arm-none-eabi/lib/armv7-ar/thumb/softfp/libc.a(lib_a-findfp.o)
__fp_unlock_all                                   /usr/lib/gcc/arm-none-eabi/4.8.2/../../../arm-none-eabi/lib/armv7-ar/thumb/softfp/libc.a(lib_a-findfp.o)
__fsym___cmd_exit                                 build/kernel/components/finsh/msh.o
__fsym___cmd_exit_desc                            build/kernel/components/finsh/msh.o
__fsym___cmd_exit_name                            build/kernel/components/finsh/msh.o
__fsym___cmd_free                                 build/kernel/components/finsh/msh_cmd.o
__fsym___cmd_free_desc                            build/kernel/components/finsh/msh_cmd.o
__fsym___cmd_free_name                            build/kernel/components/finsh/msh_cmd.o
__fsym___cmd_help                                 build/kernel/components/finsh/msh.o
__fsym___cmd_help_desc                            build/kernel/components/finsh/msh.o
__fsym___cmd_help_name                            build/kernel/components/finsh/msh.o
__fsym___cmd_list_device                          build/kernel/components/finsh/cmd.o
__fsym___cmd_list_device_desc                     build/kernel/components/finsh/cmd.o
__fsym___cmd_list_device_name                     build/kernel/components/finsh/cmd.o
__fsym___cmd_list_event                           build/kernel/components/finsh/cmd.o
__fsym___cmd_list_event_desc                      build/kernel/components/finsh/cmd.o
__fsym___cmd_list_event_name                      build/kernel/components/finsh/cmd.o
__fsym___cmd_list_mailbox                         build/kernel/components/finsh/cmd.o
__fsym___cmd_list_mailbox_desc                    build/kernel/components/finsh/cmd.o
__fsym___cmd_list_mailbox_name                    build/kernel/components/finsh/cmd.o
__fsym___cmd_list_mempool                         build/kernel/components/finsh/cmd.o
__fsym___cmd_list_mempool_desc                    build/kernel/components/finsh/cmd.o
__fsym___cmd_list_mempool_name                    build/kernel/components/finsh/cmd.o
__fsym___cmd_list_msgqueue                        build/kernel/components/finsh/cmd.o
__fsym___cmd_list_msgqueue_desc                   build/kernel/components/finsh/cmd.o
__fsym___cmd_list_msgqueue_name                   build/kernel/components/finsh/cmd.o
__fsym___cmd_list_mutex                           build/kernel/components/finsh/cmd.o
__fsym___cmd_list_mutex_desc                      build/kernel/components/finsh/cmd.o
__fsym___cmd_list_mutex_name                      build/kernel/components/finsh/cmd.o
__fsym___cmd_list_sem                             build/kernel/components/finsh/cmd.o
__fsym___cmd_list_sem_desc                        build/kernel/components/finsh/cmd.o
__fsym___cmd_list_sem_name                        build/kernel/components/finsh/cmd.o
__fsym___cmd_list_thread                          build/kernel/components/finsh/cmd.o
__fsym___cmd_list_thread_desc                     build/kernel/components/finsh/cmd.o
__fsym___cmd_list_thread_name                     build/kernel/components/finsh/cmd.o
__fsym___cmd_list_timer                           build/kernel/components/finsh/cmd.o
__fsym___cmd_list_timer_desc                      build/kernel/components/finsh/cmd.o
__fsym___cmd_list_timer_name                      build/kernel/components/finsh/cmd.o
__fsym___cmd_ps                                   build/kernel/components/finsh/msh_cmd.o
__fsym___cmd_ps_desc                              build/kernel/components/finsh/msh_cmd.o
__fsym___cmd_ps_name                              build/kernel/components/finsh/msh_cmd.o
__fsym___cmd_time                                 build/kernel/components/finsh/msh_cmd.o
__fsym___cmd_time_desc                            build/kernel/components/finsh/msh_cmd.o
__fsym___cmd_time_name                            build/kernel/components/finsh/msh_cmd.o
__fsym___cmd_version                              build/kernel/components/finsh/cmd.o
__fsym___cmd_version_desc                         build/kernel/components/finsh/cmd.o
__fsym___cmd_version_name                         build/kernel/components/finsh/cmd.o
__fsym_gic                                        build/kernel/libcpu/arm/realview-a8-vmm/gic.o
__fsym_gic_desc                                   build/kernel/libcpu/arm/realview-a8-vmm/gic.o
__fsym_gic_name                                   build/kernel/libcpu/arm/realview-a8-vmm/gic.o
__fsym_hello                                      build/kernel/components/finsh/cmd.o
__fsym_hello_desc                                 build/kernel/components/finsh/cmd.o
__fsym_hello_name                                 build/kernel/components/finsh/cmd.o
__fsym_list                                       build/kernel/components/finsh/cmd.o
__fsym_list_desc                                  build/kernel/components/finsh/cmd.o
__fsym_list_device                                build/kernel/components/finsh/cmd.o
__fsym_list_device_desc                           build/kernel/components/finsh/cmd.o
__fsym_list_device_name                           build/kernel/components/finsh/cmd.o
__fsym_list_event                                 build/kernel/components/finsh/cmd.o
__fsym_list_event_desc                            build/kernel/components/finsh/cmd.o
__fsym_list_event_name                            build/kernel/components/finsh/cmd.o
__fsym_list_mailbox                               build/kernel/components/finsh/cmd.o
__fsym_list_mailbox_desc                          build/kernel/components/finsh/cmd.o
__fsym_list_mailbox_name                          build/kernel/components/finsh/cmd.o
__fsym_list_mem                                   build/kernel/src/mem.o
__fsym_list_mem_desc                              build/kernel/src/mem.o
__fsym_list_mem_name                              build/kernel/src/mem.o
__fsym_list_mempool                               build/kernel/components/finsh/cmd.o
__fsym_list_mempool_desc                          build/kernel/components/finsh/cmd.o
__fsym_list_mempool_name                          build/kernel/components/finsh/cmd.o
__fsym_list_msgqueue                              build/kernel/components/finsh/cmd.o
__fsym_list_msgqueue_desc                         build/kernel/components/finsh/cmd.o
__fsym_list_msgqueue_name                         build/kernel/components/finsh/cmd.o
__fsym_list_mutex                                 build/kernel/components/finsh/cmd.o
__fsym_list_mutex_desc                            build/kernel/components/finsh/cmd.o
__fsym_list_mutex_name                            build/kernel/components/finsh/cmd.o
__fsym_list_name                                  build/kernel/components/finsh/cmd.o
__fsym_list_sem                                   build/kernel/components/finsh/cmd.o
__fsym_list_sem_desc                              build/kernel/components/finsh/cmd.o
__fsym_list_sem_name                              build/kernel/components/finsh/cmd.o
__fsym_list_thread                                build/kernel/components/finsh/cmd.o
__fsym_list_thread_desc                           build/kernel/components/finsh/cmd.o
__fsym_list_thread_name                           build/kernel/components/finsh/cmd.o
__fsym_list_timer                                 build/kernel/components/finsh/cmd.o
__fsym_list_timer_desc                            build/kernel/components/finsh/cmd.o
__fsym_list_timer_name                            build/kernel/components/finsh/cmd.o
__fsym_log_device                                 build/kernel/components/utilities/logtrace/log_trace.o
__fsym_log_device_desc                            build/kernel/components/utilities/logtrace/log_trace.o
__fsym_log_device_name                            build/kernel/components/utilities/logtrace/log_trace.o
__fsym_log_flush                                  build/kernel/components/utilities/logtrace/log_trace.o
__fsym_log_flush_desc                             build/kernel/components/utilities/logtrace/log_trace.o
__fsym_log_flush_name                             build/kernel/components/utilities/logtrace/log_trace.o
__fsym_log_level                                  build/kernel/components/utilities/logtrace/log_trace.o
__fsym_log_level_desc                             build/kernel/components/utilities/logtrace/log_trace.o
__fsym_log_level_name                             build/kernel/components/utilities/logtrace/log_trace.o
__fsym_log_trace                                  build/kernel/components/utilities/logtrace/log_trace.o
__fsym_log_trace_desc                             build/kernel/components/utilities/logtrace/log_trace.o
__fsym_log_trace_name                             build/kernel/components/utilities/logtrace/log_trace.o
__fsym_msh                                        build/kernel/components/finsh/msh.o
__fsym_msh_desc                                   build/kernel/components/finsh/msh.o
__fsym_msh_name                                   build/kernel/components/finsh/msh.o
__fsym_version                                    build/kernel/components/finsh/cmd.o
__fsym_version_desc                               build/kernel/components/finsh/cmd.o
__fsym_version_name                               build/kernel/components/finsh/cmd.o
__fsymtab_end                                     build/kernel/components/finsh/shell.o
__fsymtab_start                                   build/kernel/components/finsh/shell.o
__gettzinfo                                       /usr/lib/gcc/arm-none-eabi/4.8.2/../../../arm-none-eabi/lib/armv7-ar/thumb/softfp/libc.a(lib_a-gettzinfo.o)
                                                  /usr/lib/gcc/arm-none-eabi/4.8.2/../../../arm-none-eabi/lib/armv7-ar/thumb/softfp/libc.a(lib_a-mktm_r.o)
                                                  /usr/lib/gcc/arm-none-eabi/4.8.2/../../../arm-none-eabi/lib/armv7-ar/thumb/softfp/libc.a(lib_a-tzset_r.o)
__gnu_ldivmod_helper                              /usr/lib/gcc/arm-none-eabi/4.8.2/armv7-ar/thumb/softfp/libgcc.a(bpabi.o)
__gnu_uldivmod_helper                             /usr/lib/gcc/arm-none-eabi/4.8.2/armv7-ar/thumb/softfp/libgcc.a(bpabi.o)
                                                  /usr/lib/gcc/arm-none-eabi/4.8.2/armv7-ar/thumb/softfp/libgcc.a(_aeabi_uldivmod.o)
__init_array_end                                  /usr/lib/gcc/arm-none-eabi/4.8.2/../../../arm-none-eabi/lib/armv7-ar/thumb/softfp/libc.a(lib_a-init.o)
__init_array_start                                /usr/lib/gcc/arm-none-eabi/4.8.2/../../../arm-none-eabi/lib/armv7-ar/thumb/softfp/libc.a(lib_a-init.o)
__libc_fini                                       /usr/lib/gcc/arm-none-eabi/4.8.2/../../../arm-none-eabi/lib/armv7-ar/thumb/softfp/libc.a(lib_a-__call_atexit.o)
__libc_fini_array                                 /usr/lib/gcc/arm-none-eabi/4.8.2/../../../arm-none-eabi/lib/armv7-ar/thumb/softfp/libc.a(lib_a-fini.o)
                                                  /usr/lib/gcc/arm-none-eabi/4.8.2/../../../arm-none-eabi/lib/armv7-ar/thumb/softfp/libc.a(lib_a-__call_atexit.o)
                                                  /usr/lib/gcc/arm-none-eabi/4.8.2/../../../arm-none-eabi/lib/armv7-ar/thumb/softfp/crt0.o
__libc_init_array                                 /usr/lib/gcc/arm-none-eabi/4.8.2/../../../arm-none-eabi/lib/armv7-ar/thumb/softfp/libc.a(lib_a-init.o)
                                                  /usr/lib/gcc/arm-none-eabi/4.8.2/../../../arm-none-eabi/lib/armv7-ar/thumb/softfp/crt0.o
__locale_charset                                  /usr/lib/gcc/arm-none-eabi/4.8.2/../../../arm-none-eabi/lib/armv7-ar/thumb/softfp/libc.a(lib_a-locale.o)
                                                  /usr/lib/gcc/arm-none-eabi/4.8.2/../../../arm-none-eabi/lib/armv7-ar/thumb/softfp/libc.a(lib_a-mbtowc_r.o)
                                                  /usr/lib/gcc/arm-none-eabi/4.8.2/../../../arm-none-eabi/lib/armv7-ar/thumb/softfp/libc.a(lib_a-mbrtowc.o)
__locale_cjk_lang                                 /usr/lib/gcc/arm-none-eabi/4.8.2/../../../arm-none-eabi/lib/armv7-ar/thumb/softfp/libc.a(lib_a-locale.o)
__locale_mb_cur_max                               /usr/lib/gcc/arm-none-eabi/4.8.2/../../../arm-none-eabi/lib/armv7-ar/thumb/softfp/libc.a(lib_a-locale.o)
                                                  /usr/lib/gcc/arm-none-eabi/4.8.2/../../../arm-none-eabi/lib/armv7-ar/thumb/softfp/libc.a(lib_a-svfiscanf.o)
__locale_msgcharset                               /usr/lib/gcc/arm-none-eabi/4.8.2/../../../arm-none-eabi/lib/armv7-ar/thumb/softfp/libc.a(lib_a-locale.o)
__logtrace_vfmtout                                build/kernel/components/utilities/logtrace/log_trace.o
__lowest_bit_bitmap                               build/kernel/src/kservice.o
__mb_cur_max                                      /usr/lib/gcc/arm-none-eabi/4.8.2/../../../arm-none-eabi/lib/armv7-ar/thumb/softfp/libc.a(lib_a-locale.o)
__mbtowc                                          /usr/lib/gcc/arm-none-eabi/4.8.2/../../../arm-none-eabi/lib/armv7-ar/thumb/softfp/libc.a(lib_a-mbtowc_r.o)
                                                  /usr/lib/gcc/arm-none-eabi/4.8.2/../../../arm-none-eabi/lib/armv7-ar/thumb/softfp/libc.a(lib_a-mbrtowc.o)
__mlocale_changed                                 /usr/lib/gcc/arm-none-eabi/4.8.2/../../../arm-none-eabi/lib/armv7-ar/thumb/softfp/libc.a(lib_a-locale.o)
__nlocale_changed                                 /usr/lib/gcc/arm-none-eabi/4.8.2/../../../arm-none-eabi/lib/armv7-ar/thumb/softfp/libc.a(lib_a-locale.o)
__preinit_array_end                               /usr/lib/gcc/arm-none-eabi/4.8.2/../../../arm-none-eabi/lib/armv7-ar/thumb/softfp/libc.a(lib_a-init.o)
__preinit_array_start                             /usr/lib/gcc/arm-none-eabi/4.8.2/../../../arm-none-eabi/lib/armv7-ar/thumb/softfp/libc.a(lib_a-init.o)
__register_exitproc                               /usr/lib/gcc/arm-none-eabi/4.8.2/../../../arm-none-eabi/lib/armv7-ar/thumb/softfp/libc.a(lib_a-__atexit.o)
                                                  /usr/lib/gcc/arm-none-eabi/4.8.2/../../../arm-none-eabi/lib/armv7-ar/thumb/softfp/libc.a(lib_a-atexit.o)
__register_frame_info                             /usr/lib/gcc/arm-none-eabi/4.8.2/armv7-ar/thumb/softfp/crtbegin.o
__rt_ffs                                          build/kernel/src/kservice.o
                                                  build/kernel/src/scheduler.o
__rt_init_finsh_system_init                       build/kernel/components/finsh/shell.o
__rt_init_libc_system_init                        build/kernel/components/libc/newlib/libc.o
__rt_init_rt_hw_timer_init                        build/bsp/drivers/board.o
__rt_init_rt_hw_uart_init                         build/bsp/drivers/serial.o
__rt_init_rti_board_end                           build/kernel/src/components.o
__rt_init_rti_end                                 build/kernel/src/components.o
__rt_init_rti_start                               build/kernel/src/components.o
__sccl                                            /usr/lib/gcc/arm-none-eabi/4.8.2/../../../arm-none-eabi/lib/armv7-ar/thumb/softfp/libc.a(lib_a-sccl.o)
                                                  /usr/lib/gcc/arm-none-eabi/4.8.2/../../../arm-none-eabi/lib/armv7-ar/thumb/softfp/libc.a(lib_a-svfiscanf.o)
__sclose                                          /usr/lib/gcc/arm-none-eabi/4.8.2/../../../arm-none-eabi/lib/armv7-ar/thumb/softfp/libc.a(lib_a-stdio.o)
                                                  /usr/lib/gcc/arm-none-eabi/4.8.2/../../../arm-none-eabi/lib/armv7-ar/thumb/softfp/libc.a(lib_a-findfp.o)
__seofread                                        /usr/lib/gcc/arm-none-eabi/4.8.2/../../../arm-none-eabi/lib/armv7-ar/thumb/softfp/libc.a(lib_a-stdio.o)
                                                  /usr/lib/gcc/arm-none-eabi/4.8.2/../../../arm-none-eabi/lib/armv7-ar/thumb/softfp/libc.a(lib_a-siscanf.o)
__sflush_r                                        /usr/lib/gcc/arm-none-eabi/4.8.2/../../../arm-none-eabi/lib/armv7-ar/thumb/softfp/libc.a(lib_a-fflush.o)
__sfmoreglue                                      /usr/lib/gcc/arm-none-eabi/4.8.2/../../../arm-none-eabi/lib/armv7-ar/thumb/softfp/libc.a(lib_a-findfp.o)
__sfp                                             /usr/lib/gcc/arm-none-eabi/4.8.2/../../../arm-none-eabi/lib/armv7-ar/thumb/softfp/libc.a(lib_a-findfp.o)
__sfp_lock_acquire                                /usr/lib/gcc/arm-none-eabi/4.8.2/../../../arm-none-eabi/lib/armv7-ar/thumb/softfp/libc.a(lib_a-findfp.o)
                                                  /usr/lib/gcc/arm-none-eabi/4.8.2/../../../arm-none-eabi/lib/armv7-ar/thumb/softfp/libc.a(lib_a-fclose.o)
__sfp_lock_release                                /usr/lib/gcc/arm-none-eabi/4.8.2/../../../arm-none-eabi/lib/armv7-ar/thumb/softfp/libc.a(lib_a-findfp.o)
                                                  /usr/lib/gcc/arm-none-eabi/4.8.2/../../../arm-none-eabi/lib/armv7-ar/thumb/softfp/libc.a(lib_a-fclose.o)
__sinit                                           /usr/lib/gcc/arm-none-eabi/4.8.2/../../../arm-none-eabi/lib/armv7-ar/thumb/softfp/libc.a(lib_a-findfp.o)
                                                  /usr/lib/gcc/arm-none-eabi/4.8.2/../../../arm-none-eabi/lib/armv7-ar/thumb/softfp/libc.a(lib_a-fclose.o)
                                                  /usr/lib/gcc/arm-none-eabi/4.8.2/../../../arm-none-eabi/lib/armv7-ar/thumb/softfp/libc.a(lib_a-fflush.o)
                                                  /usr/lib/gcc/arm-none-eabi/4.8.2/../../../arm-none-eabi/lib/armv7-ar/thumb/softfp/libc.a(lib_a-ungetc.o)
__sinit_lock_acquire                              /usr/lib/gcc/arm-none-eabi/4.8.2/../../../arm-none-eabi/lib/armv7-ar/thumb/softfp/libc.a(lib_a-findfp.o)
__sinit_lock_release                              /usr/lib/gcc/arm-none-eabi/4.8.2/../../../arm-none-eabi/lib/armv7-ar/thumb/softfp/libc.a(lib_a-findfp.o)
__sread                                           /usr/lib/gcc/arm-none-eabi/4.8.2/../../../arm-none-eabi/lib/armv7-ar/thumb/softfp/libc.a(lib_a-stdio.o)
                                                  /usr/lib/gcc/arm-none-eabi/4.8.2/../../../arm-none-eabi/lib/armv7-ar/thumb/softfp/libc.a(lib_a-findfp.o)
__sseek                                           /usr/lib/gcc/arm-none-eabi/4.8.2/../../../arm-none-eabi/lib/armv7-ar/thumb/softfp/libc.a(lib_a-stdio.o)
                                                  /usr/lib/gcc/arm-none-eabi/4.8.2/../../../arm-none-eabi/lib/armv7-ar/thumb/softfp/libc.a(lib_a-findfp.o)
__ssrefill_r                                      /usr/lib/gcc/arm-none-eabi/4.8.2/../../../arm-none-eabi/lib/armv7-ar/thumb/softfp/libc.a(lib_a-svfiscanf.o)
__ssvfiscanf_r                                    /usr/lib/gcc/arm-none-eabi/4.8.2/../../../arm-none-eabi/lib/armv7-ar/thumb/softfp/libc.a(lib_a-svfiscanf.o)
                                                  /usr/lib/gcc/arm-none-eabi/4.8.2/../../../arm-none-eabi/lib/armv7-ar/thumb/softfp/libc.a(lib_a-siscanf.o)
__stack                                           /usr/lib/gcc/arm-none-eabi/4.8.2/../../../arm-none-eabi/lib/armv7-ar/thumb/softfp/crt0.o
__submore                                         /usr/lib/gcc/arm-none-eabi/4.8.2/../../../arm-none-eabi/lib/armv7-ar/thumb/softfp/libc.a(lib_a-ungetc.o)
                                                  /usr/lib/gcc/arm-none-eabi/4.8.2/../../../arm-none-eabi/lib/armv7-ar/thumb/softfp/libc.a(lib_a-svfiscanf.o)
__swrite                                          /usr/lib/gcc/arm-none-eabi/4.8.2/../../../arm-none-eabi/lib/armv7-ar/thumb/softfp/libc.a(lib_a-stdio.o)
                                                  /usr/lib/gcc/arm-none-eabi/4.8.2/../../../arm-none-eabi/lib/armv7-ar/thumb/softfp/libc.a(lib_a-findfp.o)
__tz_lock                                         /usr/lib/gcc/arm-none-eabi/4.8.2/../../../arm-none-eabi/lib/armv7-ar/thumb/softfp/libc.a(lib_a-tzlock.o)
                                                  /usr/lib/gcc/arm-none-eabi/4.8.2/../../../arm-none-eabi/lib/armv7-ar/thumb/softfp/libc.a(lib_a-mktm_r.o)
                                                  /usr/lib/gcc/arm-none-eabi/4.8.2/../../../arm-none-eabi/lib/armv7-ar/thumb/softfp/libc.a(lib_a-tzset_r.o)
__tz_unlock                                       /usr/lib/gcc/arm-none-eabi/4.8.2/../../../arm-none-eabi/lib/armv7-ar/thumb/softfp/libc.a(lib_a-tzlock.o)
                                                  /usr/lib/gcc/arm-none-eabi/4.8.2/../../../arm-none-eabi/lib/armv7-ar/thumb/softfp/libc.a(lib_a-mktm_r.o)
                                                  /usr/lib/gcc/arm-none-eabi/4.8.2/../../../arm-none-eabi/lib/armv7-ar/thumb/softfp/libc.a(lib_a-tzset_r.o)
__tzcalc_limits                                   /usr/lib/gcc/arm-none-eabi/4.8.2/../../../arm-none-eabi/lib/armv7-ar/thumb/softfp/libc.a(lib_a-mktm_r.o)
                                                  /usr/lib/gcc/arm-none-eabi/4.8.2/../../../arm-none-eabi/lib/armv7-ar/thumb/softfp/libc.a(lib_a-tzset_r.o)
__udivdi3                                         /usr/lib/gcc/arm-none-eabi/4.8.2/armv7-ar/thumb/softfp/libgcc.a(_udivdi3.o)
                                                  /usr/lib/gcc/arm-none-eabi/4.8.2/armv7-ar/thumb/softfp/libgcc.a(bpabi.o)
__udivsi3                                         /usr/lib/gcc/arm-none-eabi/4.8.2/armv7-ar/thumb/softfp/libgcc.a(_udivsi3.o)
__vsym_dummy                                      build/kernel/components/finsh/cmd.o
__vsym_dummy_desc                                 build/kernel/components/finsh/cmd.o
__vsym_dummy_name                                 build/kernel/components/finsh/cmd.o
__vsymtab_end                                     build/kernel/components/finsh/shell.o
__vsymtab_start                                   build/kernel/components/finsh/shell.o
_atoi_r                                           /usr/lib/gcc/arm-none-eabi/4.8.2/../../../arm-none-eabi/lib/armv7-ar/thumb/softfp/libc.a(lib_a-atoi.o)
_calloc_r                                         build/kernel/components/libc/newlib/syscalls.o
_cleanup                                          /usr/lib/gcc/arm-none-eabi/4.8.2/../../../arm-none-eabi/lib/armv7-ar/thumb/softfp/libc.a(lib_a-findfp.o)
_cleanup_r                                        /usr/lib/gcc/arm-none-eabi/4.8.2/../../../arm-none-eabi/lib/armv7-ar/thumb/softfp/libc.a(lib_a-findfp.o)
_close_r                                          build/kernel/components/libc/newlib/syscalls.o
                                                  /usr/lib/gcc/arm-none-eabi/4.8.2/../../../arm-none-eabi/lib/armv7-ar/thumb/softfp/libc.a(lib_a-stdio.o)
_ctype_                                           /usr/lib/gcc/arm-none-eabi/4.8.2/../../../arm-none-eabi/lib/armv7-ar/thumb/softfp/libc.a(lib_a-ctype_.o)
_daylight                                         /usr/lib/gcc/arm-none-eabi/4.8.2/../../../arm-none-eabi/lib/armv7-ar/thumb/softfp/libc.a(lib_a-tzvars.o)
                                                  /usr/lib/gcc/arm-none-eabi/4.8.2/../../../arm-none-eabi/lib/armv7-ar/thumb/softfp/libc.a(lib_a-mktm_r.o)
                                                  /usr/lib/gcc/arm-none-eabi/4.8.2/../../../arm-none-eabi/lib/armv7-ar/thumb/softfp/libc.a(lib_a-tzset_r.o)
_execve_r                                         build/kernel/components/libc/newlib/syscalls.o
_exit                                             build/kernel/components/libc/newlib/syscalls.o
                                                  /usr/lib/gcc/arm-none-eabi/4.8.2/../../../arm-none-eabi/lib/armv7-ar/thumb/softfp/libc.a(lib_a-exit.o)
_fclose_r                                         /usr/lib/gcc/arm-none-eabi/4.8.2/../../../arm-none-eabi/lib/armv7-ar/thumb/softfp/libc.a(lib_a-fclose.o)
_fcntl_r                                          build/kernel/components/libc/newlib/syscalls.o
_fflush_r                                         /usr/lib/gcc/arm-none-eabi/4.8.2/../../../arm-none-eabi/lib/armv7-ar/thumb/softfp/libc.a(lib_a-fflush.o)
                                                  /usr/lib/gcc/arm-none-eabi/4.8.2/../../../arm-none-eabi/lib/armv7-ar/thumb/softfp/libc.a(lib_a-fclose.o)
                                                  /usr/lib/gcc/arm-none-eabi/4.8.2/../../../arm-none-eabi/lib/armv7-ar/thumb/softfp/libc.a(lib_a-ungetc.o)
_findenv_r                                        /usr/lib/gcc/arm-none-eabi/4.8.2/../../../arm-none-eabi/lib/armv7-ar/thumb/softfp/libc.a(lib_a-getenv_r.o)
                                                  /usr/lib/gcc/arm-none-eabi/4.8.2/../../../arm-none-eabi/lib/armv7-ar/thumb/softfp/libc.a(lib_a-setenv_r.o)
_fini                                             /usr/lib/gcc/arm-none-eabi/4.8.2/armv7-ar/thumb/softfp/crti.o
                                                  /usr/lib/gcc/arm-none-eabi/4.8.2/../../../arm-none-eabi/lib/armv7-ar/thumb/softfp/libc.a(lib_a-fini.o)
_fork_r                                           build/kernel/components/libc/newlib/syscalls.o
_free_r                                           build/kernel/components/libc/newlib/syscalls.o
                                                  /usr/lib/gcc/arm-none-eabi/4.8.2/../../../arm-none-eabi/lib/armv7-ar/thumb/softfp/libc.a(lib_a-fclose.o)
                                                  /usr/lib/gcc/arm-none-eabi/4.8.2/../../../arm-none-eabi/lib/armv7-ar/thumb/softfp/libc.a(lib_a-fflush.o)
                                                  /usr/lib/gcc/arm-none-eabi/4.8.2/../../../arm-none-eabi/lib/armv7-ar/thumb/softfp/libc.a(lib_a-svfiscanf.o)
                                                  /usr/lib/gcc/arm-none-eabi/4.8.2/../../../arm-none-eabi/lib/armv7-ar/thumb/softfp/libc.a(lib_a-malloc.o)
                                                  /usr/lib/gcc/arm-none-eabi/4.8.2/../../../arm-none-eabi/lib/armv7-ar/thumb/softfp/libc.a(lib_a-putenv_r.o)
_fstat_r                                          build/kernel/components/libc/newlib/syscalls.o
_fwalk                                            /usr/lib/gcc/arm-none-eabi/4.8.2/../../../arm-none-eabi/lib/armv7-ar/thumb/softfp/libc.a(lib_a-fwalk.o)
                                                  /usr/lib/gcc/arm-none-eabi/4.8.2/../../../arm-none-eabi/lib/armv7-ar/thumb/softfp/libc.a(lib_a-findfp.o)
_fwalk_reent                                      /usr/lib/gcc/arm-none-eabi/4.8.2/../../../arm-none-eabi/lib/armv7-ar/thumb/softfp/libc.a(lib_a-fwalk.o)
                                                  /usr/lib/gcc/arm-none-eabi/4.8.2/../../../arm-none-eabi/lib/armv7-ar/thumb/softfp/libc.a(lib_a-fflush.o)
_getenv_r                                         /usr/lib/gcc/arm-none-eabi/4.8.2/../../../arm-none-eabi/lib/armv7-ar/thumb/softfp/libc.a(lib_a-getenv_r.o)
                                                  /usr/lib/gcc/arm-none-eabi/4.8.2/../../../arm-none-eabi/lib/armv7-ar/thumb/softfp/libc.a(lib_a-tzset_r.o)
_getpid_r                                         build/kernel/components/libc/newlib/syscalls.o
_gettimeofday_r                                   build/kernel/components/libc/newlib/syscalls.o
_global_impure_ptr                                /usr/lib/gcc/arm-none-eabi/4.8.2/../../../arm-none-eabi/lib/armv7-ar/thumb/softfp/libc.a(lib_a-impure.o)
                                                  /usr/lib/gcc/arm-none-eabi/4.8.2/../../../arm-none-eabi/lib/armv7-ar/thumb/softfp/libc.a(lib_a-findfp.o)
                                                  /usr/lib/gcc/arm-none-eabi/4.8.2/../../../arm-none-eabi/lib/armv7-ar/thumb/softfp/libc.a(lib_a-fflush.o)
                                                  /usr/lib/gcc/arm-none-eabi/4.8.2/../../../arm-none-eabi/lib/armv7-ar/thumb/softfp/libc.a(lib_a-__call_atexit.o)
                                                  /usr/lib/gcc/arm-none-eabi/4.8.2/../../../arm-none-eabi/lib/armv7-ar/thumb/softfp/libc.a(lib_a-__atexit.o)
                                                  /usr/lib/gcc/arm-none-eabi/4.8.2/../../../arm-none-eabi/lib/armv7-ar/thumb/softfp/libc.a(lib_a-exit.o)
_impure_ptr                                       /usr/lib/gcc/arm-none-eabi/4.8.2/../../../arm-none-eabi/lib/armv7-ar/thumb/softfp/libc.a(lib_a-impure.o)
                                                  /usr/lib/gcc/arm-none-eabi/4.8.2/../../../arm-none-eabi/lib/armv7-ar/thumb/softfp/libc.a(lib_a-fclose.o)
                                                  /usr/lib/gcc/arm-none-eabi/4.8.2/../../../arm-none-eabi/lib/armv7-ar/thumb/softfp/libc.a(lib_a-mbrtowc.o)
                                                  /usr/lib/gcc/arm-none-eabi/4.8.2/../../../arm-none-eabi/lib/armv7-ar/thumb/softfp/libc.a(lib_a-locale.o)
                                                  /usr/lib/gcc/arm-none-eabi/4.8.2/../../../arm-none-eabi/lib/armv7-ar/thumb/softfp/libc.a(lib_a-findfp.o)
                                                  /usr/lib/gcc/arm-none-eabi/4.8.2/../../../arm-none-eabi/lib/armv7-ar/thumb/softfp/libc.a(lib_a-fflush.o)
                                                  /usr/lib/gcc/arm-none-eabi/4.8.2/../../../arm-none-eabi/lib/armv7-ar/thumb/softfp/libc.a(lib_a-ungetc.o)
                                                  /usr/lib/gcc/arm-none-eabi/4.8.2/../../../arm-none-eabi/lib/armv7-ar/thumb/softfp/libc.a(lib_a-strtoul.o)
                                                  /usr/lib/gcc/arm-none-eabi/4.8.2/../../../arm-none-eabi/lib/armv7-ar/thumb/softfp/libc.a(lib_a-siscanf.o)
                                                  /usr/lib/gcc/arm-none-eabi/4.8.2/../../../arm-none-eabi/lib/armv7-ar/thumb/softfp/libc.a(lib_a-malloc.o)
                                                  /usr/lib/gcc/arm-none-eabi/4.8.2/../../../arm-none-eabi/lib/armv7-ar/thumb/softfp/libc.a(lib_a-errno.o)
                                                  /usr/lib/gcc/arm-none-eabi/4.8.2/../../../arm-none-eabi/lib/armv7-ar/thumb/softfp/libc.a(lib_a-tzset.o)
                                                  /usr/lib/gcc/arm-none-eabi/4.8.2/../../../arm-none-eabi/lib/armv7-ar/thumb/softfp/libc.a(lib_a-strtol.o)
                                                  /usr/lib/gcc/arm-none-eabi/4.8.2/../../../arm-none-eabi/lib/armv7-ar/thumb/softfp/libc.a(lib_a-putenv.o)
_init                                             /usr/lib/gcc/arm-none-eabi/4.8.2/armv7-ar/thumb/softfp/crti.o
                                                  /usr/lib/gcc/arm-none-eabi/4.8.2/../../../arm-none-eabi/lib/armv7-ar/thumb/softfp/libc.a(lib_a-init.o)
_isatty_r                                         build/kernel/components/libc/newlib/syscalls.o
_kill_r                                           build/kernel/components/libc/newlib/syscalls.o
_link_r                                           build/kernel/components/libc/newlib/syscalls.o
_localeconv_r                                     /usr/lib/gcc/arm-none-eabi/4.8.2/../../../arm-none-eabi/lib/armv7-ar/thumb/softfp/libc.a(lib_a-locale.o)
_lseek_r                                          build/kernel/components/libc/newlib/syscalls.o
                                                  /usr/lib/gcc/arm-none-eabi/4.8.2/../../../arm-none-eabi/lib/armv7-ar/thumb/softfp/libc.a(lib_a-stdio.o)
_mainCRTStartup                                   /usr/lib/gcc/arm-none-eabi/4.8.2/../../../arm-none-eabi/lib/armv7-ar/thumb/softfp/crt0.o
_malloc_r                                         build/kernel/components/libc/newlib/syscalls.o
                                                  /usr/lib/gcc/arm-none-eabi/4.8.2/../../../arm-none-eabi/lib/armv7-ar/thumb/softfp/libc.a(lib_a-findfp.o)
                                                  /usr/lib/gcc/arm-none-eabi/4.8.2/../../../arm-none-eabi/lib/armv7-ar/thumb/softfp/libc.a(lib_a-ungetc.o)
                                                  /usr/lib/gcc/arm-none-eabi/4.8.2/../../../arm-none-eabi/lib/armv7-ar/thumb/softfp/libc.a(lib_a-malloc.o)
                                                  /usr/lib/gcc/arm-none-eabi/4.8.2/../../../arm-none-eabi/lib/armv7-ar/thumb/softfp/libc.a(lib_a-tzset_r.o)
                                                  /usr/lib/gcc/arm-none-eabi/4.8.2/../../../arm-none-eabi/lib/armv7-ar/thumb/softfp/libc.a(lib_a-strdup_r.o)
                                                  /usr/lib/gcc/arm-none-eabi/4.8.2/../../../arm-none-eabi/lib/armv7-ar/thumb/softfp/libc.a(lib_a-setenv_r.o)
_mbrtowc_r                                        /usr/lib/gcc/arm-none-eabi/4.8.2/../../../arm-none-eabi/lib/armv7-ar/thumb/softfp/libc.a(lib_a-mbrtowc.o)
                                                  /usr/lib/gcc/arm-none-eabi/4.8.2/../../../arm-none-eabi/lib/armv7-ar/thumb/softfp/libc.a(lib_a-svfiscanf.o)
_mbtowc_r                                         /usr/lib/gcc/arm-none-eabi/4.8.2/../../../arm-none-eabi/lib/armv7-ar/thumb/softfp/libc.a(lib_a-mbtowc_r.o)
_mkdir_r                                          build/kernel/components/libc/newlib/syscalls.o
_mktm_r                                           /usr/lib/gcc/arm-none-eabi/4.8.2/../../../arm-none-eabi/lib/armv7-ar/thumb/softfp/libc.a(lib_a-mktm_r.o)
_open_r                                           build/kernel/components/libc/newlib/syscalls.o
_pthread_cond_timedwait                           build/kernel/components/pthreads/pthread_cond.o
_putenv_r                                         /usr/lib/gcc/arm-none-eabi/4.8.2/../../../arm-none-eabi/lib/armv7-ar/thumb/softfp/libc.a(lib_a-putenv_r.o)
                                                  /usr/lib/gcc/arm-none-eabi/4.8.2/../../../arm-none-eabi/lib/armv7-ar/thumb/softfp/libc.a(lib_a-putenv.o)
_read_r                                           build/kernel/components/libc/newlib/syscalls.o
                                                  /usr/lib/gcc/arm-none-eabi/4.8.2/../../../arm-none-eabi/lib/armv7-ar/thumb/softfp/libc.a(lib_a-stdio.o)
_realloc_r                                        build/kernel/components/libc/newlib/syscalls.o
                                                  /usr/lib/gcc/arm-none-eabi/4.8.2/../../../arm-none-eabi/lib/armv7-ar/thumb/softfp/libc.a(lib_a-ungetc.o)
                                                  /usr/lib/gcc/arm-none-eabi/4.8.2/../../../arm-none-eabi/lib/armv7-ar/thumb/softfp/libc.a(lib_a-setenv_r.o)
_rename_r                                         build/kernel/components/libc/newlib/syscalls.o
_reset                                            build/kernel/libcpu/arm/realview-a8-vmm/start_gcc.o
                                                  build/kernel/libcpu/arm/realview-a8-vmm/vector_gcc.o
_rt_errno                                         build/kernel/src/kservice.o
_sbrk_r                                           build/kernel/components/libc/newlib/syscalls.o
_setenv_r                                         /usr/lib/gcc/arm-none-eabi/4.8.2/../../../arm-none-eabi/lib/armv7-ar/thumb/softfp/libc.a(lib_a-setenv_r.o)
                                                  /usr/lib/gcc/arm-none-eabi/4.8.2/../../../arm-none-eabi/lib/armv7-ar/thumb/softfp/libc.a(lib_a-putenv_r.o)
_setlocale_r                                      /usr/lib/gcc/arm-none-eabi/4.8.2/../../../arm-none-eabi/lib/armv7-ar/thumb/softfp/libc.a(lib_a-locale.o)
_sfread_r                                         /usr/lib/gcc/arm-none-eabi/4.8.2/../../../arm-none-eabi/lib/armv7-ar/thumb/softfp/libc.a(lib_a-svfiscanf.o)
_siscanf_r                                        /usr/lib/gcc/arm-none-eabi/4.8.2/../../../arm-none-eabi/lib/armv7-ar/thumb/softfp/libc.a(lib_a-siscanf.o)
_start                                            /usr/lib/gcc/arm-none-eabi/4.8.2/../../../arm-none-eabi/lib/armv7-ar/thumb/softfp/crt0.o
_stat_r                                           build/kernel/components/libc/newlib/syscalls.o
_strdup_r                                         /usr/lib/gcc/arm-none-eabi/4.8.2/../../../arm-none-eabi/lib/armv7-ar/thumb/softfp/libc.a(lib_a-strdup_r.o)
                                                  /usr/lib/gcc/arm-none-eabi/4.8.2/../../../arm-none-eabi/lib/armv7-ar/thumb/softfp/libc.a(lib_a-putenv_r.o)
_strtol_r                                         /usr/lib/gcc/arm-none-eabi/4.8.2/../../../arm-none-eabi/lib/armv7-ar/thumb/softfp/libc.a(lib_a-strtol.o)
                                                  /usr/lib/gcc/arm-none-eabi/4.8.2/../../../arm-none-eabi/lib/armv7-ar/thumb/softfp/libc.a(lib_a-svfiscanf.o)
                                                  /usr/lib/gcc/arm-none-eabi/4.8.2/../../../arm-none-eabi/lib/armv7-ar/thumb/softfp/libc.a(lib_a-atoi.o)
_strtoll_r                                        /usr/lib/gcc/arm-none-eabi/4.8.2/../../../arm-none-eabi/lib/armv7-ar/thumb/softfp/libc.a(lib_a-strtoll_r.o)
                                                  /usr/lib/gcc/arm-none-eabi/4.8.2/../../../arm-none-eabi/lib/armv7-ar/thumb/softfp/libc.a(lib_a-svfiscanf.o)
_strtoul_r                                        /usr/lib/gcc/arm-none-eabi/4.8.2/../../../arm-none-eabi/lib/armv7-ar/thumb/softfp/libc.a(lib_a-strtoul.o)
                                                  /usr/lib/gcc/arm-none-eabi/4.8.2/../../../arm-none-eabi/lib/armv7-ar/thumb/softfp/libc.a(lib_a-svfiscanf.o)
_strtoull_r                                       /usr/lib/gcc/arm-none-eabi/4.8.2/../../../arm-none-eabi/lib/armv7-ar/thumb/softfp/libc.a(lib_a-strtoull_r.o)
                                                  /usr/lib/gcc/arm-none-eabi/4.8.2/../../../arm-none-eabi/lib/armv7-ar/thumb/softfp/libc.a(lib_a-svfiscanf.o)
_sungetc_r                                        /usr/lib/gcc/arm-none-eabi/4.8.2/../../../arm-none-eabi/lib/armv7-ar/thumb/softfp/libc.a(lib_a-svfiscanf.o)
_syscall_table_begin                              build/kernel/components/finsh/symbol.o
                                                  build/kernel/components/finsh/finsh_vm.o
                                                  build/kernel/components/finsh/msh.o
                                                  build/kernel/components/finsh/cmd.o
                                                  build/kernel/components/finsh/shell.o
_syscall_table_end                                build/kernel/components/finsh/symbol.o
                                                  build/kernel/components/finsh/finsh_vm.o
                                                  build/kernel/components/finsh/msh.o
                                                  build/kernel/components/finsh/cmd.o
                                                  build/kernel/components/finsh/shell.o
_system                                           build/kernel/components/libc/newlib/syscalls.o
_sysvar_table_begin                               build/kernel/components/finsh/symbol.o
                                                  build/kernel/components/finsh/finsh_var.o
                                                  build/kernel/components/finsh/cmd.o
                                                  build/kernel/components/finsh/shell.o
_sysvar_table_end                                 build/kernel/components/finsh/symbol.o
                                                  build/kernel/components/finsh/finsh_var.o
                                                  build/kernel/components/finsh/cmd.o
                                                  build/kernel/components/finsh/shell.o
_thread_keys                                      build/kernel/components/pthreads/pthread_tls.o
                                                  build/kernel/components/pthreads/pthread.o
_times_r                                          build/kernel/components/libc/newlib/syscalls.o
_timevalue                                        build/kernel/components/pthreads/clock_time.o
_timezone                                         /usr/lib/gcc/arm-none-eabi/4.8.2/../../../arm-none-eabi/lib/armv7-ar/thumb/softfp/libc.a(lib_a-tzvars.o)
                                                  /usr/lib/gcc/arm-none-eabi/4.8.2/../../../arm-none-eabi/lib/armv7-ar/thumb/softfp/libc.a(lib_a-tzset_r.o)
_tzname                                           /usr/lib/gcc/arm-none-eabi/4.8.2/../../../arm-none-eabi/lib/armv7-ar/thumb/softfp/libc.a(lib_a-tzvars.o)
                                                  /usr/lib/gcc/arm-none-eabi/4.8.2/../../../arm-none-eabi/lib/armv7-ar/thumb/softfp/libc.a(lib_a-tzset_r.o)
_tzset_r                                          /usr/lib/gcc/arm-none-eabi/4.8.2/../../../arm-none-eabi/lib/armv7-ar/thumb/softfp/libc.a(lib_a-tzset_r.o)
                                                  /usr/lib/gcc/arm-none-eabi/4.8.2/../../../arm-none-eabi/lib/armv7-ar/thumb/softfp/libc.a(lib_a-tzset.o)
_ungetc_r                                         /usr/lib/gcc/arm-none-eabi/4.8.2/../../../arm-none-eabi/lib/armv7-ar/thumb/softfp/libc.a(lib_a-ungetc.o)
_unlink_r                                         build/kernel/components/libc/newlib/syscalls.o
_unsetenv_r                                       /usr/lib/gcc/arm-none-eabi/4.8.2/../../../arm-none-eabi/lib/armv7-ar/thumb/softfp/libc.a(lib_a-setenv_r.o)
_wait_r                                           build/kernel/components/libc/newlib/syscalls.o
_write_r                                          build/kernel/components/libc/newlib/syscalls.o
                                                  /usr/lib/gcc/arm-none-eabi/4.8.2/../../../arm-none-eabi/lib/armv7-ar/thumb/softfp/libc.a(lib_a-stdio.o)
arm_gic_ack                                       build/kernel/libcpu/arm/realview-a8-vmm/gic.o
                                                  build/kernel/libcpu/arm/realview-a8-vmm/trap.o
arm_gic_clear_active                              build/kernel/libcpu/arm/realview-a8-vmm/gic.o
arm_gic_clear_pending                             build/kernel/libcpu/arm/realview-a8-vmm/gic.o
arm_gic_clear_sgi                                 build/kernel/libcpu/arm/realview-a8-vmm/gic.o
                                                  build/kernel/libcpu/arm/realview-a8-vmm/interrupt.o
arm_gic_cpu_init                                  build/kernel/libcpu/arm/realview-a8-vmm/gic.o
                                                  build/kernel/libcpu/arm/realview-a8-vmm/interrupt.o
arm_gic_dist_init                                 build/kernel/libcpu/arm/realview-a8-vmm/gic.o
                                                  build/kernel/libcpu/arm/realview-a8-vmm/interrupt.o
arm_gic_dump                                      build/kernel/libcpu/arm/realview-a8-vmm/gic.o
arm_gic_dump_type                                 build/kernel/libcpu/arm/realview-a8-vmm/gic.o
arm_gic_get_active_irq                            build/kernel/libcpu/arm/realview-a8-vmm/gic.o
                                                  build/kernel/libcpu/arm/realview-a8-vmm/trap.o
arm_gic_mask                                      build/kernel/libcpu/arm/realview-a8-vmm/gic.o
                                                  build/kernel/libcpu/arm/realview-a8-vmm/interrupt.o
arm_gic_set_cpu                                   build/kernel/libcpu/arm/realview-a8-vmm/gic.o
arm_gic_set_group                                 build/kernel/libcpu/arm/realview-a8-vmm/gic.o
arm_gic_trigger                                   build/kernel/libcpu/arm/realview-a8-vmm/gic.o
                                                  build/kernel/libcpu/arm/realview-a8-vmm/interrupt.o
arm_gic_umask                                     build/kernel/libcpu/arm/realview-a8-vmm/gic.o
                                                  build/kernel/libcpu/arm/realview-a8-vmm/interrupt.o
atexit                                            /usr/lib/gcc/arm-none-eabi/4.8.2/../../../arm-none-eabi/lib/armv7-ar/thumb/softfp/libc.a(lib_a-atexit.o)
                                                  /usr/lib/gcc/arm-none-eabi/4.8.2/../../../arm-none-eabi/lib/armv7-ar/thumb/softfp/libc.a(lib_a-__call_atexit.o)
                                                  /usr/lib/gcc/arm-none-eabi/4.8.2/../../../arm-none-eabi/lib/armv7-ar/thumb/softfp/crt0.o
atoi                                              /usr/lib/gcc/arm-none-eabi/4.8.2/../../../arm-none-eabi/lib/armv7-ar/thumb/softfp/libc.a(lib_a-atoi.o)
                                                  build/kernel/components/finsh/finsh_token.o
clock_getres                                      build/kernel/components/pthreads/clock_time.o
clock_gettime                                     build/kernel/components/pthreads/clock_time.o
                                                  build/kernel/components/libc/newlib/syscalls.o
clock_settime                                     build/kernel/components/pthreads/clock_time.o
clock_time_system_init                            build/kernel/components/pthreads/clock_time.o
                                                  build/kernel/components/pthreads/pthread.o
clock_time_to_tick                                build/kernel/components/pthreads/clock_time.o
                                                  build/kernel/components/pthreads/semaphore.o
                                                  build/kernel/components/pthreads/pthread_cond.o
                                                  build/kernel/components/pthreads/mqueue.o
cmd_free                                          build/kernel/components/finsh/msh_cmd.o
cmd_ps                                            build/kernel/components/finsh/msh_cmd.o
cmd_time                                          build/kernel/components/finsh/msh_cmd.o
environ                                           /usr/lib/gcc/arm-none-eabi/4.8.2/../../../arm-none-eabi/lib/armv7-ar/thumb/softfp/libc.a(lib_a-environ.o)
                                                  /usr/lib/gcc/arm-none-eabi/4.8.2/../../../arm-none-eabi/lib/armv7-ar/thumb/softfp/libc.a(lib_a-getenv_r.o)
                                                  /usr/lib/gcc/arm-none-eabi/4.8.2/../../../arm-none-eabi/lib/armv7-ar/thumb/softfp/libc.a(lib_a-setenv_r.o)
exit                                              /usr/lib/gcc/arm-none-eabi/4.8.2/../../../arm-none-eabi/lib/armv7-ar/thumb/softfp/libc.a(lib_a-exit.o)
                                                  /usr/lib/gcc/arm-none-eabi/4.8.2/../../../arm-none-eabi/lib/armv7-ar/thumb/softfp/crt0.o
fclose                                            /usr/lib/gcc/arm-none-eabi/4.8.2/../../../arm-none-eabi/lib/armv7-ar/thumb/softfp/libc.a(lib_a-fclose.o)
                                                  /usr/lib/gcc/arm-none-eabi/4.8.2/../../../arm-none-eabi/lib/armv7-ar/thumb/softfp/libc.a(lib_a-findfp.o)
fflush                                            /usr/lib/gcc/arm-none-eabi/4.8.2/../../../arm-none-eabi/lib/armv7-ar/thumb/softfp/libc.a(lib_a-fflush.o)
finsh_compile_pc                                  build/kernel/components/finsh/finsh_compiler.o
finsh_compile_sp                                  build/kernel/components/finsh/finsh_compiler.o
finsh_compiler_run                                build/kernel/components/finsh/finsh_compiler.o
                                                  build/kernel/components/finsh/shell.o
finsh_errno                                       build/kernel/components/finsh/finsh_error.o
                                                  build/kernel/components/finsh/shell.o
finsh_error_init                                  build/kernel/components/finsh/finsh_error.o
                                                  build/kernel/components/finsh/finsh_init.o
finsh_error_set                                   build/kernel/components/finsh/finsh_error.o
                                                  build/kernel/components/finsh/finsh_token.o
                                                  build/kernel/components/finsh/finsh_parser.o
                                                  build/kernel/components/finsh/finsh_node.o
                                                  build/kernel/components/finsh/finsh_compiler.o
finsh_error_string                                build/kernel/components/finsh/finsh_error.o
                                                  build/kernel/components/finsh/shell.o
finsh_flush                                       build/kernel/components/finsh/finsh_init.o
                                                  build/kernel/components/finsh/shell.o
finsh_get_device                                  build/kernel/components/finsh/shell.o
finsh_get_echo                                    build/kernel/components/finsh/shell.o
finsh_get_prompt                                  build/kernel/components/finsh/shell.o
finsh_heap                                        build/kernel/components/finsh/finsh_heap.o
finsh_heap_allocate                               build/kernel/components/finsh/finsh_heap.o
                                                  build/kernel/components/finsh/finsh_node.o
finsh_heap_free                                   build/kernel/components/finsh/finsh_heap.o
finsh_heap_init                                   build/kernel/components/finsh/finsh_heap.o
                                                  build/kernel/components/finsh/finsh_init.o
finsh_init                                        build/kernel/components/finsh/finsh_init.o
                                                  build/kernel/components/finsh/shell.o
finsh_node_allocate                               build/kernel/components/finsh/finsh_node.o
                                                  build/kernel/components/finsh/finsh_parser.o
finsh_node_init                                   build/kernel/components/finsh/finsh_node.o
                                                  build/kernel/components/finsh/finsh_init.o
finsh_node_new_char                               build/kernel/components/finsh/finsh_node.o
                                                  build/kernel/components/finsh/finsh_parser.o
finsh_node_new_id                                 build/kernel/components/finsh/finsh_node.o
                                                  build/kernel/components/finsh/finsh_parser.o
finsh_node_new_int                                build/kernel/components/finsh/finsh_node.o
                                                  build/kernel/components/finsh/finsh_parser.o
finsh_node_new_long                               build/kernel/components/finsh/finsh_node.o
                                                  build/kernel/components/finsh/finsh_parser.o
finsh_node_new_ptr                                build/kernel/components/finsh/finsh_node.o
                                                  build/kernel/components/finsh/finsh_parser.o
finsh_node_new_string                             build/kernel/components/finsh/finsh_node.o
                                                  build/kernel/components/finsh/finsh_parser.o
finsh_parser_init                                 build/kernel/components/finsh/finsh_parser.o
                                                  build/kernel/components/finsh/finsh_init.o
finsh_parser_run                                  build/kernel/components/finsh/finsh_parser.o
                                                  build/kernel/components/finsh/shell.o
finsh_pc                                          build/kernel/components/finsh/finsh_vm.o
                                                  build/kernel/components/finsh/finsh_ops.o
finsh_reset                                       build/kernel/components/finsh/finsh_init.o
finsh_run_line                                    build/kernel/components/finsh/shell.o
finsh_set_device                                  build/kernel/components/finsh/shell.o
finsh_set_echo                                    build/kernel/components/finsh/shell.o
finsh_sp                                          build/kernel/components/finsh/finsh_vm.o
                                                  build/kernel/components/finsh/finsh_ops.o
finsh_stack_bottom                                build/kernel/components/finsh/finsh_init.o
                                                  build/kernel/components/finsh/shell.o
finsh_syscall_append                              build/kernel/components/finsh/finsh_vm.o
finsh_syscall_lookup                              build/kernel/components/finsh/finsh_vm.o
                                                  build/kernel/components/finsh/finsh_node.o
finsh_system_function_init                        build/kernel/components/finsh/shell.o
finsh_system_init                                 build/kernel/components/finsh/shell.o
finsh_system_var_init                             build/kernel/components/finsh/shell.o
finsh_sysvar_append                               build/kernel/components/finsh/finsh_var.o
finsh_sysvar_lookup                               build/kernel/components/finsh/finsh_var.o
                                                  build/kernel/components/finsh/finsh_node.o
finsh_thread_entry                                build/kernel/components/finsh/shell.o
finsh_token_get_token                             build/kernel/components/finsh/finsh_token.o
finsh_token_init                                  build/kernel/components/finsh/finsh_token.o
                                                  build/kernel/components/finsh/finsh_parser.o
finsh_token_token                                 build/kernel/components/finsh/finsh_token.o
                                                  build/kernel/components/finsh/finsh_parser.o
finsh_var_delete                                  build/kernel/components/finsh/finsh_var.o
finsh_var_init                                    build/kernel/components/finsh/finsh_var.o
                                                  build/kernel/components/finsh/finsh_init.o
finsh_var_insert                                  build/kernel/components/finsh/finsh_var.o
                                                  build/kernel/components/finsh/finsh_parser.o
finsh_var_lookup                                  build/kernel/components/finsh/finsh_var.o
                                                  build/kernel/components/finsh/finsh_node.o
finsh_vm_run                                      build/kernel/components/finsh/finsh_vm.o
                                                  build/kernel/components/finsh/shell.o
finsh_vm_stack                                    build/kernel/components/finsh/finsh_vm.o
                                                  build/kernel/components/finsh/finsh_init.o
                                                  build/kernel/components/finsh/finsh_compiler.o
free                                              /usr/lib/gcc/arm-none-eabi/4.8.2/../../../arm-none-eabi/lib/armv7-ar/thumb/softfp/libc.a(lib_a-malloc.o)
                                                  /usr/lib/gcc/arm-none-eabi/4.8.2/../../../arm-none-eabi/lib/armv7-ar/thumb/softfp/libc.a(lib_a-__call_atexit.o)
                                                  /usr/lib/gcc/arm-none-eabi/4.8.2/../../../arm-none-eabi/lib/armv7-ar/thumb/softfp/libc.a(lib_a-tzset_r.o)
global_errno                                      build/kernel/components/finsh/finsh_error.o
global_node_table                                 build/kernel/components/finsh/finsh_node.o
global_syscall_list                               build/kernel/components/finsh/finsh_vm.o
                                                  build/kernel/components/finsh/cmd.o
global_sysvar_list                                build/kernel/components/finsh/finsh_var.o
                                                  build/kernel/components/finsh/cmd.o
global_variable                                   build/kernel/components/finsh/finsh_var.o
                                                  build/kernel/components/finsh/finsh_heap.o
hardware_init_hook                                /usr/lib/gcc/arm-none-eabi/4.8.2/../../../arm-none-eabi/lib/armv7-ar/thumb/softfp/crt0.o
hello                                             build/kernel/components/finsh/cmd.o
init_thread                                       build/bsp/applications/application.o
isr_table                                         build/kernel/libcpu/arm/realview-a8-vmm/interrupt.o
                                                  build/kernel/libcpu/arm/realview-a8-vmm/trap.o
iswspace                                          /usr/lib/gcc/arm-none-eabi/4.8.2/../../../arm-none-eabi/lib/armv7-ar/thumb/softfp/libc.a(lib_a-iswspace.o)
                                                  /usr/lib/gcc/arm-none-eabi/4.8.2/../../../arm-none-eabi/lib/armv7-ar/thumb/softfp/libc.a(lib_a-svfiscanf.o)
libc_system_init                                  build/kernel/components/libc/newlib/libc.o
list                                              build/kernel/components/finsh/cmd.o
list_device                                       build/kernel/components/finsh/cmd.o
list_event                                        build/kernel/components/finsh/cmd.o
list_mailbox                                      build/kernel/components/finsh/cmd.o
list_mem                                          build/kernel/src/mem.o
                                                  build/kernel/components/finsh/msh_cmd.o
list_mempool                                      build/kernel/components/finsh/cmd.o
list_msgqueue                                     build/kernel/components/finsh/cmd.o
list_mutex                                        build/kernel/components/finsh/cmd.o
list_prefix                                       build/kernel/components/finsh/cmd.o
                                                  build/kernel/components/finsh/shell.o
list_sem                                          build/kernel/components/finsh/cmd.o
list_thread                                       build/kernel/components/finsh/cmd.o
                                                  build/kernel/components/finsh/msh_cmd.o
                                                  build/kernel/libcpu/arm/realview-a8-vmm/trap.o
list_timer                                        build/kernel/components/finsh/cmd.o
localeconv                                        /usr/lib/gcc/arm-none-eabi/4.8.2/../../../arm-none-eabi/lib/armv7-ar/thumb/softfp/libc.a(lib_a-locale.o)
log_session                                       build/kernel/components/utilities/logtrace/log_trace.o
log_trace                                         build/kernel/components/utilities/logtrace/log_trace.o
log_trace_flush                                   build/kernel/components/utilities/logtrace/log_trace.o
log_trace_get_device                              build/kernel/components/utilities/logtrace/log_trace.o
log_trace_init                                    build/kernel/components/utilities/logtrace/log_trace.o
log_trace_register_session                        build/kernel/components/utilities/logtrace/log_trace.o
log_trace_session_find                            build/kernel/components/utilities/logtrace/log_trace.o
log_trace_session_set_level                       build/kernel/components/utilities/logtrace/log_trace.o
log_trace_set_device                              build/kernel/components/utilities/logtrace/log_trace.o
log_trace_set_level                               build/kernel/components/utilities/logtrace/log_trace.o
main                                              build/bsp/applications/startup.o
                                                  /usr/lib/gcc/arm-none-eabi/4.8.2/../../../arm-none-eabi/lib/armv7-ar/thumb/softfp/crt0.o
malloc                                            /usr/lib/gcc/arm-none-eabi/4.8.2/../../../arm-none-eabi/lib/armv7-ar/thumb/softfp/libc.a(lib_a-malloc.o)
                                                  /usr/lib/gcc/arm-none-eabi/4.8.2/../../../arm-none-eabi/lib/armv7-ar/thumb/softfp/libc.a(lib_a-__atexit.o)
mbrtowc                                           /usr/lib/gcc/arm-none-eabi/4.8.2/../../../arm-none-eabi/lib/armv7-ar/thumb/softfp/libc.a(lib_a-mbrtowc.o)
memcpy                                            /usr/lib/gcc/arm-none-eabi/4.8.2/../../../arm-none-eabi/lib/armv7-ar/thumb/softfp/libc.a(lib_a-memcpy-stub.o)
                                                  /usr/lib/gcc/arm-none-eabi/4.8.2/../../../arm-none-eabi/lib/armv7-ar/thumb/softfp/libc.a(lib_a-ungetc.o)
                                                  /usr/lib/gcc/arm-none-eabi/4.8.2/../../../arm-none-eabi/lib/armv7-ar/thumb/softfp/libc.a(lib_a-svfiscanf.o)
                                                  /usr/lib/gcc/arm-none-eabi/4.8.2/../../../arm-none-eabi/lib/armv7-ar/thumb/softfp/libc.a(lib_a-strdup_r.o)
                                                  /usr/lib/gcc/arm-none-eabi/4.8.2/../../../arm-none-eabi/lib/armv7-ar/thumb/softfp/libc.a(lib_a-setenv_r.o)
                                                  build/kernel/components/drivers/src/ringbuffer.o
                                                  build/kernel/components/finsh/cmd.o
                                                  build/kernel/components/finsh/shell.o
memset                                            /usr/lib/gcc/arm-none-eabi/4.8.2/../../../arm-none-eabi/lib/armv7-ar/thumb/softfp/libc.a(lib_a-memset.o)
                                                  /usr/lib/gcc/arm-none-eabi/4.8.2/../../../arm-none-eabi/lib/armv7-ar/thumb/softfp/libc.a(lib_a-findfp.o)
                                                  /usr/lib/gcc/arm-none-eabi/4.8.2/../../../arm-none-eabi/lib/armv7-ar/thumb/softfp/libc.a(lib_a-svfiscanf.o)
                                                  build/kernel/components/pthreads/pthread_attr.o
                                                  build/kernel/components/finsh/finsh_token.o
                                                  build/kernel/components/finsh/finsh_var.o
                                                  build/kernel/components/finsh/finsh_parser.o
                                                  build/kernel/components/finsh/finsh_node.o
                                                  build/kernel/components/finsh/finsh_heap.o
                                                  build/kernel/components/finsh/finsh_compiler.o
                                                  build/kernel/components/finsh/msh.o
                                                  build/kernel/components/finsh/shell.o
                                                  /usr/lib/gcc/arm-none-eabi/4.8.2/../../../arm-none-eabi/lib/armv7-ar/thumb/softfp/crt0.o
mq_close                                          build/kernel/components/pthreads/mqueue.o
mq_getattr                                        build/kernel/components/pthreads/mqueue.o
mq_notify                                         build/kernel/components/pthreads/mqueue.o
mq_open                                           build/kernel/components/pthreads/mqueue.o
mq_receive                                        build/kernel/components/pthreads/mqueue.o
mq_send                                           build/kernel/components/pthreads/mqueue.o
mq_setattr                                        build/kernel/components/pthreads/mqueue.o
mq_timedreceive                                   build/kernel/components/pthreads/mqueue.o
mq_timedsend                                      build/kernel/components/pthreads/mqueue.o
mq_unlink                                         build/kernel/components/pthreads/mqueue.o
msh_auto_complete                                 build/kernel/components/finsh/msh.o
                                                  build/kernel/components/finsh/shell.o
msh_exec                                          build/kernel/components/finsh/msh.o
                                                  build/kernel/components/finsh/shell.o
msh_help                                          build/kernel/components/finsh/msh.o
msh_is_used                                       build/kernel/components/finsh/msh.o
                                                  build/kernel/components/finsh/shell.o
op_table                                          build/kernel/components/finsh/finsh_ops.o
                                                  build/kernel/components/finsh/finsh_vm.o
posix_mq_system_init                              build/kernel/components/pthreads/mqueue.o
                                                  build/kernel/components/pthreads/pthread.o
posix_sem_system_init                             build/kernel/components/pthreads/semaphore.o
                                                  build/kernel/components/pthreads/pthread.o
pthread_atfork                                    build/kernel/components/pthreads/pthread.o
pthread_attr_destroy                              build/kernel/components/pthreads/pthread_attr.o
pthread_attr_getdetachstate                       build/kernel/components/pthreads/pthread_attr.o
pthread_attr_getguardsize                         build/kernel/components/pthreads/pthread_attr.o
pthread_attr_getschedparam                        build/kernel/components/pthreads/pthread_attr.o
pthread_attr_getschedpolicy                       build/kernel/components/pthreads/pthread_attr.o
pthread_attr_getscope                             build/kernel/components/pthreads/pthread_attr.o
pthread_attr_getstack                             build/kernel/components/pthreads/pthread_attr.o
pthread_attr_getstackaddr                         build/kernel/components/pthreads/pthread_attr.o
pthread_attr_getstacksize                         build/kernel/components/pthreads/pthread_attr.o
pthread_attr_init                                 build/kernel/components/pthreads/pthread_attr.o
                                                  build/kernel/components/pthreads/pthread.o
pthread_attr_setdetachstate                       build/kernel/components/pthreads/pthread_attr.o
pthread_attr_setguardsize                         build/kernel/components/pthreads/pthread_attr.o
pthread_attr_setschedparam                        build/kernel/components/pthreads/pthread_attr.o
pthread_attr_setschedpolicy                       build/kernel/components/pthreads/pthread_attr.o
pthread_attr_setscope                             build/kernel/components/pthreads/pthread_attr.o
pthread_attr_setstack                             build/kernel/components/pthreads/pthread_attr.o
pthread_attr_setstackaddr                         build/kernel/components/pthreads/pthread_attr.o
pthread_attr_setstacksize                         build/kernel/components/pthreads/pthread_attr.o
pthread_barrier_destroy                           build/kernel/components/pthreads/pthread_barrier.o
pthread_barrier_init                              build/kernel/components/pthreads/pthread_barrier.o
pthread_barrier_wait                              build/kernel/components/pthreads/pthread_barrier.o
pthread_barrierattr_destroy                       build/kernel/components/pthreads/pthread_barrier.o
pthread_barrierattr_getpshared                    build/kernel/components/pthreads/pthread_barrier.o
pthread_barrierattr_init                          build/kernel/components/pthreads/pthread_barrier.o
pthread_barrierattr_setpshared                    build/kernel/components/pthreads/pthread_barrier.o
pthread_cancel                                    build/kernel/components/pthreads/pthread.o
pthread_cleanup_pop                               build/kernel/components/pthreads/pthread.o
pthread_cleanup_push                              build/kernel/components/pthreads/pthread.o
pthread_cond_broadcast                            build/kernel/components/pthreads/pthread_cond.o
                                                  build/kernel/components/pthreads/pthread_rwlock.o
                                                  build/kernel/components/pthreads/pthread_barrier.o
pthread_cond_destroy                              build/kernel/components/pthreads/pthread_cond.o
                                                  build/kernel/components/pthreads/pthread_rwlock.o
                                                  build/kernel/components/pthreads/pthread_barrier.o
pthread_cond_init                                 build/kernel/components/pthreads/pthread_cond.o
                                                  build/kernel/components/pthreads/pthread_rwlock.o
                                                  build/kernel/components/pthreads/pthread_barrier.o
pthread_cond_signal                               build/kernel/components/pthreads/pthread_cond.o
                                                  build/kernel/components/pthreads/pthread_rwlock.o
pthread_cond_timedwait                            build/kernel/components/pthreads/pthread_cond.o
                                                  build/kernel/components/pthreads/pthread_rwlock.o
pthread_cond_wait                                 build/kernel/components/pthreads/pthread_cond.o
                                                  build/kernel/components/pthreads/pthread_rwlock.o
                                                  build/kernel/components/pthreads/pthread_barrier.o
pthread_condattr_destroy                          build/kernel/components/pthreads/pthread_cond.o
pthread_condattr_getclock                         build/kernel/components/pthreads/pthread_cond.o
pthread_condattr_getpshared                       build/kernel/components/pthreads/pthread_cond.o
pthread_condattr_init                             build/kernel/components/pthreads/pthread_cond.o
pthread_condattr_setclock                         build/kernel/components/pthreads/pthread_cond.o
pthread_condattr_setpshared                       build/kernel/components/pthreads/pthread_cond.o
pthread_create                                    build/kernel/components/pthreads/pthread.o
pthread_default_attr                              build/kernel/components/pthreads/pthread_attr.o
pthread_default_mutexattr                         build/kernel/components/pthreads/pthread_mutex.o
pthread_detach                                    build/kernel/components/pthreads/pthread.o
pthread_exit                                      build/kernel/components/pthreads/pthread.o
pthread_getspecific                               build/kernel/components/pthreads/pthread_tls.o
pthread_join                                      build/kernel/components/pthreads/pthread.o
pthread_key_create                                build/kernel/components/pthreads/pthread_tls.o
pthread_key_delete                                build/kernel/components/pthreads/pthread_tls.o
pthread_key_system_init                           build/kernel/components/pthreads/pthread_tls.o
                                                  build/kernel/components/pthreads/pthread.o
pthread_kill                                      build/kernel/components/pthreads/pthread.o
pthread_mutex_destroy                             build/kernel/components/pthreads/pthread_mutex.o
                                                  build/kernel/components/pthreads/pthread_rwlock.o
pthread_mutex_init                                build/kernel/components/pthreads/pthread_mutex.o
                                                  build/kernel/components/pthreads/pthread_rwlock.o
                                                  build/kernel/components/pthreads/pthread_barrier.o
pthread_mutex_lock                                build/kernel/components/pthreads/pthread_mutex.o
                                                  build/kernel/components/pthreads/pthread_rwlock.o
                                                  build/kernel/components/pthreads/pthread_cond.o
                                                  build/kernel/components/pthreads/pthread_barrier.o
pthread_mutex_trylock                             build/kernel/components/pthreads/pthread_mutex.o
pthread_mutex_unlock                              build/kernel/components/pthreads/pthread_mutex.o
                                                  build/kernel/components/pthreads/pthread_rwlock.o
                                                  build/kernel/components/pthreads/pthread_cond.o
                                                  build/kernel/components/pthreads/pthread_barrier.o
pthread_mutexattr_destroy                         build/kernel/components/pthreads/pthread_mutex.o
pthread_mutexattr_getpshared                      build/kernel/components/pthreads/pthread_mutex.o
pthread_mutexattr_gettype                         build/kernel/components/pthreads/pthread_mutex.o
pthread_mutexattr_init                            build/kernel/components/pthreads/pthread_mutex.o
pthread_mutexattr_setpshared                      build/kernel/components/pthreads/pthread_mutex.o
pthread_mutexattr_settype                         build/kernel/components/pthreads/pthread_mutex.o
pthread_once                                      build/kernel/components/pthreads/pthread.o
pthread_rwlock_destroy                            build/kernel/components/pthreads/pthread_rwlock.o
pthread_rwlock_init                               build/kernel/components/pthreads/pthread_rwlock.o
pthread_rwlock_rdlock                             build/kernel/components/pthreads/pthread_rwlock.o
pthread_rwlock_timedrdlock                        build/kernel/components/pthreads/pthread_rwlock.o
pthread_rwlock_timedwrlock                        build/kernel/components/pthreads/pthread_rwlock.o
pthread_rwlock_tryrdlock                          build/kernel/components/pthreads/pthread_rwlock.o
pthread_rwlock_trywrlock                          build/kernel/components/pthreads/pthread_rwlock.o
pthread_rwlock_unlock                             build/kernel/components/pthreads/pthread_rwlock.o
pthread_rwlock_wrlock                             build/kernel/components/pthreads/pthread_rwlock.o
pthread_rwlockattr_destroy                        build/kernel/components/pthreads/pthread_rwlock.o
pthread_rwlockattr_getpshared                     build/kernel/components/pthreads/pthread_rwlock.o
pthread_rwlockattr_init                           build/kernel/components/pthreads/pthread_rwlock.o
pthread_rwlockattr_setpshared                     build/kernel/components/pthreads/pthread_rwlock.o
pthread_setcancelstate                            build/kernel/components/pthreads/pthread.o
pthread_setcanceltype                             build/kernel/components/pthreads/pthread.o
pthread_setspecific                               build/kernel/components/pthreads/pthread_tls.o
pthread_spin_destroy                              build/kernel/components/pthreads/pthread_spin.o
pthread_spin_init                                 build/kernel/components/pthreads/pthread_spin.o
pthread_spin_lock                                 build/kernel/components/pthreads/pthread_spin.o
pthread_spin_trylock                              build/kernel/components/pthreads/pthread_spin.o
pthread_spin_unlock                               build/kernel/components/pthreads/pthread_spin.o
pthread_system_init                               build/kernel/components/pthreads/pthread.o
                                                  build/kernel/components/libc/newlib/libc.o
pthread_testcancel                                build/kernel/components/pthreads/pthread.o
putenv                                            /usr/lib/gcc/arm-none-eabi/4.8.2/../../../arm-none-eabi/lib/armv7-ar/thumb/softfp/libc.a(lib_a-putenv.o)
                                                  build/kernel/components/libc/newlib/libc.o
rt_application_init                               build/bsp/applications/application.o
                                                  build/bsp/applications/startup.o
rt_assert_hook                                    build/kernel/src/kservice.o
                                                  build/kernel/components/drivers/serial/serial.o
                                                  build/kernel/components/drivers/src/workqueue.o
                                                  build/kernel/components/drivers/src/ringbuffer.o
                                                  build/kernel/components/drivers/src/portal.o
                                                  build/kernel/components/drivers/src/pipe.o
                                                  build/kernel/components/drivers/src/dataqueue.o
                                                  build/kernel/components/drivers/src/completion.o
                                                  build/kernel/components/utilities/logtrace/log_trace.o
                                                  build/kernel/components/libc/newlib/syscalls.o
                                                  build/kernel/components/pthreads/pthread_tls.o
                                                  build/kernel/components/pthreads/pthread_attr.o
                                                  build/kernel/components/pthreads/pthread.o
                                                  build/kernel/components/pthreads/clock_time.o
                                                  build/kernel/components/finsh/msh.o
                                                  build/kernel/components/finsh/shell.o
                                                  build/kernel/libcpu/arm/common/showmem.o
                                                  build/kernel/libcpu/arm/realview-a8-vmm/pmu.o
                                                  build/kernel/libcpu/arm/realview-a8-vmm/gic.o
                                                  build/kernel/libcpu/arm/realview-a8-vmm/cpu.o
                                                  build/kernel/src/timer.o
                                                  build/kernel/src/thread.o
                                                  build/kernel/src/scheduler.o
                                                  build/kernel/src/object.o
                                                  build/kernel/src/mempool.o
                                                  build/kernel/src/mem.o
                                                  build/kernel/src/ipc.o
                                                  build/kernel/src/idle.o
                                                  build/kernel/src/device.o
                                                  build/bsp/drivers/serial.o
rt_assert_set_hook                                build/kernel/src/kservice.o
rt_calloc                                         build/kernel/src/mem.o
                                                  build/kernel/components/drivers/src/portal.o
                                                  build/kernel/components/drivers/src/pipe.o
                                                  build/kernel/components/libc/newlib/syscalls.o
rt_completion_done                                build/kernel/components/drivers/src/completion.o
                                                  build/kernel/components/drivers/serial/serial.o
rt_completion_init                                build/kernel/components/drivers/src/completion.o
                                                  build/kernel/components/drivers/serial/serial.o
rt_completion_wait                                build/kernel/components/drivers/src/completion.o
                                                  build/kernel/components/drivers/serial/serial.o
rt_components_board_init                          build/kernel/src/components.o
                                                  build/bsp/drivers/board.o
rt_components_init                                build/kernel/src/components.o
                                                  build/bsp/applications/application.o
rt_console_get_device                             build/kernel/src/kservice.o
                                                  build/kernel/components/utilities/logtrace/log_trace.o
                                                  build/kernel/components/libc/newlib/syscalls.o
                                                  build/kernel/components/finsh/shell.o
rt_console_set_device                             build/kernel/src/kservice.o
                                                  build/bsp/drivers/board.o
rt_cpu_dcache_clean_flush                         build/kernel/libcpu/arm/realview-a8-vmm/cp15_gcc.o
rt_cpu_get_smp_id                                 build/kernel/libcpu/arm/realview-a8-vmm/cp15_gcc.o
                                                  build/kernel/libcpu/arm/realview-a8-vmm/gic.o
rt_cpu_mmu_disable                                build/kernel/libcpu/arm/realview-a8-vmm/cp15_gcc.o
                                                  build/kernel/libcpu/arm/realview-a8-vmm/mmu.o
rt_cpu_mmu_enable                                 build/kernel/libcpu/arm/realview-a8-vmm/cp15_gcc.o
                                                  build/kernel/libcpu/arm/realview-a8-vmm/mmu.o
rt_cpu_tlb_set                                    build/kernel/libcpu/arm/realview-a8-vmm/cp15_gcc.o
                                                  build/kernel/libcpu/arm/realview-a8-vmm/mmu.o
rt_cpu_vector_set_base                            build/kernel/libcpu/arm/realview-a8-vmm/cp15_gcc.o
                                                  build/kernel/libcpu/arm/realview-a8-vmm/interrupt.o
rt_critical_level                                 build/kernel/src/scheduler.o
rt_current_priority                               build/kernel/src/scheduler.o
rt_current_thread                                 build/kernel/src/scheduler.o
                                                  build/kernel/libcpu/arm/realview-a8-vmm/start_gcc.o
                                                  build/kernel/src/thread.o
rt_data_queue_init                                build/kernel/components/drivers/src/dataqueue.o
                                                  build/kernel/components/drivers/serial/serial.o
rt_data_queue_peak                                build/kernel/components/drivers/src/dataqueue.o
                                                  build/kernel/components/drivers/serial/serial.o
rt_data_queue_pop                                 build/kernel/components/drivers/src/dataqueue.o
                                                  build/kernel/components/drivers/serial/serial.o
rt_data_queue_push                                build/kernel/components/drivers/src/dataqueue.o
                                                  build/kernel/components/drivers/serial/serial.o
rt_data_queue_reset                               build/kernel/components/drivers/src/dataqueue.o
rt_device_close                                   build/kernel/src/device.o
                                                  build/kernel/components/drivers/src/portal.o
                                                  build/kernel/components/utilities/logtrace/log_trace.o
                                                  build/kernel/components/finsh/shell.o
                                                  build/kernel/src/kservice.o
rt_device_control                                 build/kernel/src/device.o
                                                  build/kernel/components/utilities/logtrace/log_trace.o
                                                  build/kernel/components/pthreads/clock_time.o
rt_device_find                                    build/kernel/src/device.o
                                                  build/kernel/components/drivers/src/portal.o
                                                  build/kernel/components/utilities/logtrace/log_trace.o
                                                  build/kernel/components/pthreads/clock_time.o
                                                  build/kernel/components/finsh/shell.o
                                                  build/kernel/src/kservice.o
rt_device_init                                    build/kernel/src/device.o
                                                  build/kernel/components/drivers/src/portal.o
rt_device_init_all                                build/kernel/src/device.o
rt_device_open                                    build/kernel/src/device.o
                                                  build/kernel/components/drivers/src/portal.o
                                                  build/kernel/components/utilities/logtrace/log_trace.o
                                                  build/kernel/components/finsh/shell.o
                                                  build/kernel/src/kservice.o
rt_device_read                                    build/kernel/src/device.o
                                                  build/kernel/components/drivers/src/portal.o
                                                  build/kernel/components/finsh/shell.o
rt_device_register                                build/kernel/src/device.o
                                                  build/kernel/components/drivers/serial/serial.o
                                                  build/kernel/components/drivers/src/portal.o
                                                  build/kernel/components/drivers/src/pipe.o
                                                  build/kernel/components/utilities/logtrace/log_trace.o
rt_device_set_rx_indicate                         build/kernel/src/device.o
                                                  build/kernel/components/drivers/src/portal.o
                                                  build/kernel/components/finsh/shell.o
rt_device_set_tx_complete                         build/kernel/src/device.o
                                                  build/kernel/components/drivers/src/portal.o
rt_device_unregister                              build/kernel/src/device.o
                                                  build/kernel/components/drivers/src/portal.o
                                                  build/kernel/components/drivers/src/pipe.o
rt_device_write                                   build/kernel/src/device.o
                                                  build/kernel/components/drivers/src/portal.o
                                                  build/kernel/components/utilities/logtrace/log_trace.o
                                                  build/kernel/components/libc/newlib/syscalls.o
                                                  build/kernel/src/kservice.o
rt_enter_critical                                 build/kernel/src/scheduler.o
                                                  build/kernel/components/drivers/src/workqueue.o
                                                  build/kernel/components/drivers/src/dataqueue.o
                                                  build/kernel/components/pthreads/pthread_tls.o
                                                  build/kernel/components/pthreads/pthread_mutex.o
                                                  build/kernel/components/pthreads/pthread_cond.o
                                                  build/kernel/components/pthreads/pthread.o
                                                  build/kernel/src/thread.o
                                                  build/kernel/src/object.o
                                                  build/kernel/src/device.o
rt_event_control                                  build/kernel/src/ipc.o
rt_event_create                                   build/kernel/src/ipc.o
rt_event_delete                                   build/kernel/src/ipc.o
rt_event_detach                                   build/kernel/src/ipc.o
rt_event_init                                     build/kernel/src/ipc.o
rt_event_recv                                     build/kernel/src/ipc.o
rt_event_send                                     build/kernel/src/ipc.o
rt_exit_critical                                  build/kernel/src/scheduler.o
                                                  build/kernel/components/drivers/src/workqueue.o
                                                  build/kernel/components/drivers/src/dataqueue.o
                                                  build/kernel/components/pthreads/pthread_tls.o
                                                  build/kernel/components/pthreads/pthread_mutex.o
                                                  build/kernel/components/pthreads/pthread_cond.o
                                                  build/kernel/components/pthreads/pthread.o
                                                  build/kernel/src/thread.o
                                                  build/kernel/src/object.o
                                                  build/kernel/src/device.o
rt_free                                           build/kernel/src/mem.o
                                                  build/kernel/components/drivers/serial/serial.o
                                                  build/kernel/components/drivers/src/workqueue.o
                                                  build/kernel/components/drivers/src/portal.o
                                                  build/kernel/components/drivers/src/pipe.o
                                                  build/kernel/components/libc/newlib/syscalls.o
                                                  build/kernel/components/pthreads/semaphore.o
                                                  build/kernel/components/pthreads/pthread.o
                                                  build/kernel/components/pthreads/mqueue.o
                                                  build/kernel/src/object.o
                                                  build/kernel/src/mempool.o
                                                  build/kernel/src/kservice.o
                                                  build/kernel/src/ipc.o
                                                  build/kernel/src/idle.o
rt_free_align                                     build/kernel/src/kservice.o
rt_free_sethook                                   build/kernel/src/mem.o
rt_get_errno                                      build/kernel/src/kservice.o
rt_hw_backtrace                                   build/kernel/libcpu/arm/common/backtrace.o
rt_hw_board_init                                  build/bsp/drivers/board.o
                                                  build/bsp/applications/startup.o
rt_hw_console_output                              build/kernel/src/kservice.o
rt_hw_context_switch                              build/kernel/libcpu/arm/realview-a8-vmm/context_gcc.o
                                                  build/kernel/src/scheduler.o
rt_hw_context_switch_interrupt                    build/kernel/libcpu/arm/realview-a8-vmm/context_gcc.o
                                                  build/kernel/src/scheduler.o
rt_hw_context_switch_to                           build/kernel/libcpu/arm/realview-a8-vmm/context_gcc.o
                                                  build/kernel/src/scheduler.o
rt_hw_cpu_dcache_disable                          build/kernel/libcpu/arm/realview-a8-vmm/cp15_gcc.o
                                                  build/kernel/libcpu/arm/realview-a8-vmm/mmu.o
rt_hw_cpu_dcache_enable                           build/kernel/libcpu/arm/realview-a8-vmm/cp15_gcc.o
                                                  build/kernel/libcpu/arm/realview-a8-vmm/mmu.o
rt_hw_cpu_dump_page_table                         build/kernel/libcpu/arm/realview-a8-vmm/mmu.o
rt_hw_cpu_dump_page_table_2nd                     build/kernel/libcpu/arm/realview-a8-vmm/mmu.o
rt_hw_cpu_icache_disable                          build/kernel/libcpu/arm/realview-a8-vmm/cp15_gcc.o
                                                  build/kernel/libcpu/arm/realview-a8-vmm/mmu.o
rt_hw_cpu_icache_enable                           build/kernel/libcpu/arm/realview-a8-vmm/cp15_gcc.o
                                                  build/kernel/libcpu/arm/realview-a8-vmm/mmu.o
rt_hw_cpu_shutdown                                build/kernel/libcpu/arm/realview-a8-vmm/cpu.o
                                                  build/kernel/libcpu/arm/realview-a8-vmm/trap.o
rt_hw_interrupt_clear                             build/kernel/libcpu/arm/realview-a8-vmm/interrupt.o
rt_hw_interrupt_disable                           build/kernel/libcpu/arm/realview-a8-vmm/context_gcc.o
                                                  build/kernel/components/drivers/serial/serial.o
                                                  build/kernel/components/drivers/src/pipe.o
                                                  build/kernel/components/drivers/src/dataqueue.o
                                                  build/kernel/components/drivers/src/completion.o
                                                  build/kernel/components/utilities/logtrace/log_trace.o
                                                  build/kernel/libcpu/arm/realview-a8-vmm/cpu.o
                                                  build/kernel/src/timer.o
                                                  build/kernel/src/thread.o
                                                  build/kernel/src/scheduler.o
                                                  build/kernel/src/object.o
                                                  build/kernel/src/mempool.o
                                                  build/kernel/src/mem.o
                                                  build/kernel/src/irq.o
                                                  build/kernel/src/ipc.o
                                                  build/kernel/src/idle.o
                                                  build/kernel/src/clock.o
                                                  build/bsp/applications/startup.o
rt_hw_interrupt_enable                            build/kernel/libcpu/arm/realview-a8-vmm/context_gcc.o
                                                  build/kernel/components/drivers/serial/serial.o
                                                  build/kernel/components/drivers/src/pipe.o
                                                  build/kernel/components/drivers/src/dataqueue.o
                                                  build/kernel/components/drivers/src/completion.o
                                                  build/kernel/components/utilities/logtrace/log_trace.o
                                                  build/kernel/src/timer.o
                                                  build/kernel/src/thread.o
                                                  build/kernel/src/scheduler.o
                                                  build/kernel/src/object.o
                                                  build/kernel/src/mempool.o
                                                  build/kernel/src/mem.o
                                                  build/kernel/src/irq.o
                                                  build/kernel/src/ipc.o
                                                  build/kernel/src/idle.o
                                                  build/kernel/src/clock.o
rt_hw_interrupt_init                              build/kernel/libcpu/arm/realview-a8-vmm/interrupt.o
                                                  build/bsp/applications/startup.o
rt_hw_interrupt_install                           build/kernel/libcpu/arm/realview-a8-vmm/interrupt.o
                                                  build/bsp/drivers/serial.o
                                                  build/bsp/drivers/board.o
rt_hw_interrupt_mask                              build/kernel/libcpu/arm/realview-a8-vmm/interrupt.o
rt_hw_interrupt_trigger                           build/kernel/libcpu/arm/realview-a8-vmm/interrupt.o
rt_hw_interrupt_umask                             build/kernel/libcpu/arm/realview-a8-vmm/interrupt.o
                                                  build/bsp/drivers/serial.o
                                                  build/bsp/drivers/board.o
rt_hw_mmu_init                                    build/kernel/libcpu/arm/realview-a8-vmm/mmu.o
rt_hw_mmu_setmtt                                  build/kernel/libcpu/arm/realview-a8-vmm/mmu.o
rt_hw_pmu_dump_feature                            build/kernel/libcpu/arm/realview-a8-vmm/pmu.o
rt_hw_serial_isr                                  build/kernel/components/drivers/serial/serial.o
                                                  build/bsp/drivers/serial.o
rt_hw_serial_register                             build/kernel/components/drivers/serial/serial.o
                                                  build/bsp/drivers/serial.o
rt_hw_set_domain_register                         build/kernel/libcpu/arm/realview-a8-vmm/mmu.o
rt_hw_show_memory                                 build/kernel/libcpu/arm/common/showmem.o
rt_hw_show_register                               build/kernel/libcpu/arm/realview-a8-vmm/trap.o
rt_hw_stack_init                                  build/kernel/libcpu/arm/realview-a8-vmm/stack.o
                                                  build/kernel/src/thread.o
rt_hw_timer_ack                                   build/bsp/drivers/board.o
rt_hw_timer_init                                  build/bsp/drivers/board.o
rt_hw_trap_dabt                                   build/kernel/libcpu/arm/realview-a8-vmm/trap.o
                                                  build/kernel/libcpu/arm/realview-a8-vmm/start_gcc.o
rt_hw_trap_fiq                                    build/kernel/libcpu/arm/realview-a8-vmm/trap.o
                                                  build/kernel/libcpu/arm/realview-a8-vmm/start_gcc.o
rt_hw_trap_irq                                    build/kernel/libcpu/arm/realview-a8-vmm/trap.o
                                                  build/kernel/libcpu/arm/realview-a8-vmm/start_gcc.o
rt_hw_trap_pabt                                   build/kernel/libcpu/arm/realview-a8-vmm/trap.o
                                                  build/kernel/libcpu/arm/realview-a8-vmm/start_gcc.o
rt_hw_trap_resv                                   build/kernel/libcpu/arm/realview-a8-vmm/trap.o
                                                  build/kernel/libcpu/arm/realview-a8-vmm/start_gcc.o
rt_hw_trap_swi                                    build/kernel/libcpu/arm/realview-a8-vmm/trap.o
                                                  build/kernel/libcpu/arm/realview-a8-vmm/start_gcc.o
rt_hw_trap_undef                                  build/kernel/libcpu/arm/realview-a8-vmm/trap.o
                                                  build/kernel/libcpu/arm/realview-a8-vmm/start_gcc.o
rt_hw_uart_init                                   build/bsp/drivers/serial.o
rt_interrupt_enter                                build/kernel/src/irq.o
                                                  build/kernel/libcpu/arm/realview-a8-vmm/start_gcc.o
rt_interrupt_from_thread                          build/kernel/libcpu/arm/realview-a8-vmm/interrupt.o
                                                  build/kernel/libcpu/arm/realview-a8-vmm/start_gcc.o
                                                  build/kernel/libcpu/arm/realview-a8-vmm/context_gcc.o
rt_interrupt_get_nest                             build/kernel/src/irq.o
                                                  build/kernel/components/drivers/src/pipe.o
                                                  build/kernel/components/drivers/src/dataqueue.o
                                                  build/kernel/components/drivers/src/completion.o
                                                  build/kernel/src/object.o
                                                  build/kernel/src/mempool.o
                                                  build/kernel/src/mem.o
                                                  build/kernel/src/kservice.o
                                                  build/kernel/src/ipc.o
                                                  build/kernel/src/idle.o
rt_interrupt_leave                                build/kernel/src/irq.o
                                                  build/kernel/libcpu/arm/realview-a8-vmm/start_gcc.o
rt_interrupt_nest                                 build/kernel/src/irq.o
                                                  build/kernel/libcpu/arm/realview-a8-vmm/interrupt.o
                                                  build/kernel/src/scheduler.o
rt_interrupt_to_thread                            build/kernel/libcpu/arm/realview-a8-vmm/interrupt.o
                                                  build/kernel/libcpu/arm/realview-a8-vmm/start_gcc.o
                                                  build/kernel/libcpu/arm/realview-a8-vmm/context_gcc.o
rt_kprintf                                        build/kernel/src/kservice.o
                                                  build/kernel/components/drivers/serial/serial.o
                                                  build/kernel/components/drivers/src/workqueue.o
                                                  build/kernel/components/drivers/src/ringbuffer.o
                                                  build/kernel/components/drivers/src/portal.o
                                                  build/kernel/components/drivers/src/pipe.o
                                                  build/kernel/components/drivers/src/dataqueue.o
                                                  build/kernel/components/drivers/src/completion.o
                                                  build/kernel/components/utilities/logtrace/log_trace.o
                                                  build/kernel/components/libc/newlib/syscalls.o
                                                  build/kernel/components/pthreads/pthread_tls.o
                                                  build/kernel/components/pthreads/pthread_attr.o
                                                  build/kernel/components/pthreads/pthread.o
                                                  build/kernel/components/pthreads/clock_time.o
                                                  build/kernel/components/finsh/msh.o
                                                  build/kernel/components/finsh/cmd.o
                                                  build/kernel/components/finsh/shell.o
                                                  build/kernel/libcpu/arm/common/showmem.o
                                                  build/kernel/libcpu/arm/common/backtrace.o
                                                  build/kernel/libcpu/arm/realview-a8-vmm/trap.o
                                                  build/kernel/libcpu/arm/realview-a8-vmm/pmu.o
                                                  build/kernel/libcpu/arm/realview-a8-vmm/mmu.o
                                                  build/kernel/libcpu/arm/realview-a8-vmm/gic.o
                                                  build/kernel/libcpu/arm/realview-a8-vmm/cpu.o
                                                  build/kernel/src/timer.o
                                                  build/kernel/src/thread.o
                                                  build/kernel/src/scheduler.o
                                                  build/kernel/src/object.o
                                                  build/kernel/src/mempool.o
                                                  build/kernel/src/mem.o
                                                  build/kernel/src/ipc.o
                                                  build/kernel/src/idle.o
                                                  build/kernel/src/device.o
                                                  build/bsp/drivers/serial.o
rt_malloc                                         build/kernel/src/mem.o
                                                  build/kernel/components/drivers/serial/serial.o
                                                  build/kernel/components/drivers/src/workqueue.o
                                                  build/kernel/components/drivers/src/pipe.o
                                                  build/kernel/components/drivers/src/dataqueue.o
                                                  build/kernel/components/libc/newlib/syscalls.o
                                                  build/kernel/components/pthreads/semaphore.o
                                                  build/kernel/components/pthreads/pthread_tls.o
                                                  build/kernel/components/pthreads/pthread.o
                                                  build/kernel/components/pthreads/mqueue.o
                                                  build/kernel/components/finsh/finsh_vm.o
                                                  build/kernel/components/finsh/finsh_var.o
                                                  build/kernel/components/finsh/shell.o
                                                  build/kernel/src/thread.o
                                                  build/kernel/src/object.o
                                                  build/kernel/src/mempool.o
                                                  build/kernel/src/kservice.o
                                                  build/kernel/src/ipc.o
rt_malloc_align                                   build/kernel/src/kservice.o
rt_malloc_sethook                                 build/kernel/src/mem.o
rt_mb_control                                     build/kernel/src/ipc.o
rt_mb_create                                      build/kernel/src/ipc.o
rt_mb_delete                                      build/kernel/src/ipc.o
rt_mb_detach                                      build/kernel/src/ipc.o
rt_mb_init                                        build/kernel/src/ipc.o
rt_mb_recv                                        build/kernel/src/ipc.o
rt_mb_send                                        build/kernel/src/ipc.o
rt_mb_send_wait                                   build/kernel/src/ipc.o
rt_memcmp                                         build/kernel/src/kservice.o
rt_memcpy                                         build/kernel/src/kservice.o
                                                  build/kernel/libcpu/arm/realview-a8-vmm/interrupt.o
                                                  build/kernel/src/mem.o
                                                  build/kernel/src/ipc.o
rt_memmove                                        build/kernel/src/kservice.o
                                                  build/kernel/components/utilities/logtrace/log_trace.o
                                                  build/kernel/components/finsh/shell.o
rt_memory_info                                    build/kernel/src/mem.o
rt_memset                                         build/kernel/src/kservice.o
                                                  build/kernel/components/drivers/serial/serial.o
                                                  build/kernel/components/utilities/logtrace/log_trace.o
                                                  build/kernel/components/pthreads/pthread_tls.o
                                                  build/kernel/components/pthreads/pthread_mutex.o
                                                  build/kernel/components/pthreads/pthread_cond.o
                                                  build/kernel/components/pthreads/pthread.o
                                                  build/kernel/libcpu/arm/realview-a8-vmm/interrupt.o
                                                  build/kernel/src/thread.o
                                                  build/kernel/src/mem.o
rt_mp_alloc                                       build/kernel/src/mempool.o
rt_mp_alloc_sethook                               build/kernel/src/mempool.o
rt_mp_create                                      build/kernel/src/mempool.o
rt_mp_delete                                      build/kernel/src/mempool.o
rt_mp_detach                                      build/kernel/src/mempool.o
rt_mp_free                                        build/kernel/src/mempool.o
rt_mp_free_sethook                                build/kernel/src/mempool.o
rt_mp_init                                        build/kernel/src/mempool.o
rt_mq_control                                     build/kernel/src/ipc.o
rt_mq_create                                      build/kernel/src/ipc.o
                                                  build/kernel/components/pthreads/mqueue.o
rt_mq_delete                                      build/kernel/src/ipc.o
                                                  build/kernel/components/pthreads/mqueue.o
rt_mq_detach                                      build/kernel/src/ipc.o
rt_mq_init                                        build/kernel/src/ipc.o
rt_mq_recv                                        build/kernel/src/ipc.o
                                                  build/kernel/components/pthreads/mqueue.o
rt_mq_send                                        build/kernel/src/ipc.o
                                                  build/kernel/components/pthreads/mqueue.o
rt_mq_urgent                                      build/kernel/src/ipc.o
rt_mutex_control                                  build/kernel/src/ipc.o
rt_mutex_create                                   build/kernel/src/ipc.o
rt_mutex_delete                                   build/kernel/src/ipc.o
rt_mutex_detach                                   build/kernel/src/ipc.o
rt_mutex_init                                     build/kernel/src/ipc.o
                                                  build/kernel/components/pthreads/pthread_mutex.o
rt_mutex_release                                  build/kernel/src/ipc.o
                                                  build/kernel/components/pthreads/pthread_mutex.o
rt_mutex_take                                     build/kernel/src/ipc.o
                                                  build/kernel/components/pthreads/pthread_mutex.o
rt_object_allocate                                build/kernel/src/object.o
                                                  build/kernel/src/timer.o
                                                  build/kernel/src/thread.o
                                                  build/kernel/src/mempool.o
                                                  build/kernel/src/ipc.o
rt_object_attach_sethook                          build/kernel/src/object.o
rt_object_container                               build/kernel/src/object.o
                                                  build/kernel/components/finsh/cmd.o
                                                  build/kernel/src/thread.o
                                                  build/kernel/src/device.o
rt_object_delete                                  build/kernel/src/object.o
                                                  build/kernel/src/timer.o
                                                  build/kernel/src/thread.o
                                                  build/kernel/src/mempool.o
                                                  build/kernel/src/ipc.o
                                                  build/kernel/src/idle.o
rt_object_detach                                  build/kernel/src/object.o
                                                  build/kernel/components/pthreads/pthread_mutex.o
                                                  build/kernel/components/pthreads/pthread_cond.o
                                                  build/kernel/src/timer.o
                                                  build/kernel/src/thread.o
                                                  build/kernel/src/mempool.o
                                                  build/kernel/src/ipc.o
                                                  build/kernel/src/device.o
rt_object_detach_sethook                          build/kernel/src/object.o
rt_object_find                                    build/kernel/src/object.o
rt_object_get_information                         build/kernel/src/object.o
rt_object_init                                    build/kernel/src/object.o
                                                  build/kernel/src/timer.o
                                                  build/kernel/src/thread.o
                                                  build/kernel/src/mempool.o
                                                  build/kernel/src/ipc.o
                                                  build/kernel/src/device.o
rt_object_is_systemobject                         build/kernel/src/object.o
                                                  build/kernel/src/thread.o
                                                  build/kernel/src/idle.o
rt_object_put_hook                                build/kernel/src/object.o
                                                  build/kernel/src/timer.o
                                                  build/kernel/src/ipc.o
rt_object_put_sethook                             build/kernel/src/object.o
rt_object_take_hook                               build/kernel/src/object.o
                                                  build/kernel/src/timer.o
                                                  build/kernel/src/ipc.o
rt_object_take_sethook                            build/kernel/src/object.o
rt_object_trytake_hook                            build/kernel/src/object.o
                                                  build/kernel/src/ipc.o
rt_object_trytake_sethook                         build/kernel/src/object.o
rt_pipe_create                                    build/kernel/components/drivers/src/pipe.o
rt_pipe_destroy                                   build/kernel/components/drivers/src/pipe.o
rt_pipe_detach                                    build/kernel/components/drivers/src/pipe.o
rt_pipe_init                                      build/kernel/components/drivers/src/pipe.o
rt_portal_create                                  build/kernel/components/drivers/src/portal.o
rt_portal_destroy                                 build/kernel/components/drivers/src/portal.o
rt_portal_detach                                  build/kernel/components/drivers/src/portal.o
rt_portal_init                                    build/kernel/components/drivers/src/portal.o
rt_realloc                                        build/kernel/src/mem.o
                                                  build/kernel/components/libc/newlib/syscalls.o
rt_ringbuffer_get                                 build/kernel/components/drivers/src/ringbuffer.o
                                                  build/kernel/components/drivers/src/pipe.o
rt_ringbuffer_getchar                             build/kernel/components/drivers/src/ringbuffer.o
rt_ringbuffer_init                                build/kernel/components/drivers/src/ringbuffer.o
                                                  build/kernel/components/drivers/src/pipe.o
rt_ringbuffer_put                                 build/kernel/components/drivers/src/ringbuffer.o
                                                  build/kernel/components/drivers/src/pipe.o
rt_ringbuffer_put_force                           build/kernel/components/drivers/src/ringbuffer.o
                                                  build/kernel/components/drivers/src/pipe.o
rt_ringbuffer_putchar                             build/kernel/components/drivers/src/ringbuffer.o
rt_ringbuffer_putchar_force                       build/kernel/components/drivers/src/ringbuffer.o
rt_schedule                                       build/kernel/src/scheduler.o
                                                  build/kernel/components/drivers/src/workqueue.o
                                                  build/kernel/components/drivers/src/pipe.o
                                                  build/kernel/components/drivers/src/dataqueue.o
                                                  build/kernel/components/drivers/src/completion.o
                                                  build/kernel/components/pthreads/pthread.o
                                                  build/kernel/src/thread.o
                                                  build/kernel/src/mempool.o
                                                  build/kernel/src/ipc.o
rt_schedule_insert_thread                         build/kernel/src/scheduler.o
                                                  build/kernel/src/thread.o
rt_schedule_remove_thread                         build/kernel/src/scheduler.o
                                                  build/kernel/src/thread.o
rt_scheduler_sethook                              build/kernel/src/scheduler.o
rt_sem_control                                    build/kernel/src/ipc.o
rt_sem_create                                     build/kernel/src/ipc.o
                                                  build/kernel/components/pthreads/semaphore.o
                                                  build/kernel/components/pthreads/pthread.o
rt_sem_delete                                     build/kernel/src/ipc.o
                                                  build/kernel/components/pthreads/semaphore.o
                                                  build/kernel/components/pthreads/pthread.o
rt_sem_detach                                     build/kernel/src/ipc.o
rt_sem_init                                       build/kernel/src/ipc.o
                                                  build/kernel/components/pthreads/semaphore.o
                                                  build/kernel/components/pthreads/pthread_cond.o
                                                  build/kernel/components/pthreads/mqueue.o
                                                  build/kernel/components/finsh/shell.o
                                                  build/kernel/src/mem.o
rt_sem_release                                    build/kernel/src/ipc.o
                                                  build/kernel/components/pthreads/semaphore.o
                                                  build/kernel/components/pthreads/pthread_rwlock.o
                                                  build/kernel/components/pthreads/pthread_cond.o
                                                  build/kernel/components/pthreads/pthread.o
                                                  build/kernel/components/pthreads/mqueue.o
                                                  build/kernel/components/finsh/shell.o
                                                  build/kernel/src/mem.o
rt_sem_take                                       build/kernel/src/ipc.o
                                                  build/kernel/components/pthreads/semaphore.o
                                                  build/kernel/components/pthreads/pthread_cond.o
                                                  build/kernel/components/pthreads/pthread.o
                                                  build/kernel/components/pthreads/mqueue.o
                                                  build/kernel/components/finsh/shell.o
                                                  build/kernel/src/mem.o
rt_sem_trytake                                    build/kernel/src/ipc.o
                                                  build/kernel/components/pthreads/semaphore.o
                                                  build/kernel/components/pthreads/pthread_rwlock.o
                                                  build/kernel/components/pthreads/pthread_cond.o
rt_set_errno                                      build/kernel/src/kservice.o
                                                  build/kernel/components/drivers/serial/serial.o
                                                  build/kernel/components/pthreads/semaphore.o
                                                  build/kernel/components/pthreads/mqueue.o
                                                  build/kernel/components/pthreads/clock_time.o
                                                  build/kernel/src/mempool.o
                                                  build/kernel/src/device.o
rt_show_version                                   build/kernel/src/kservice.o
                                                  build/kernel/components/finsh/cmd.o
                                                  build/bsp/applications/startup.o
rt_snprintf                                       build/kernel/src/kservice.o
                                                  build/kernel/components/utilities/logtrace/log_trace.o
                                                  build/kernel/components/pthreads/semaphore.o
                                                  build/kernel/components/pthreads/pthread_mutex.o
                                                  build/kernel/components/pthreads/pthread_cond.o
                                                  build/kernel/components/pthreads/pthread.o
rt_sprintf                                        build/kernel/src/kservice.o
rt_strcasecmp                                     build/kernel/src/kservice.o
rt_strcmp                                         build/kernel/src/kservice.o
rt_strdup                                         build/kernel/src/kservice.o
                                                  build/kernel/components/finsh/finsh_vm.o
                                                  build/kernel/components/finsh/finsh_var.o
rt_strlen                                         build/kernel/src/kservice.o
rt_strncmp                                        build/kernel/src/kservice.o
                                                  build/kernel/src/thread.o
                                                  build/kernel/src/object.o
                                                  build/kernel/src/device.o
rt_strncpy                                        build/kernel/src/kservice.o
                                                  build/kernel/components/finsh/msh.o
                                                  build/kernel/components/finsh/cmd.o
                                                  build/kernel/libcpu/arm/realview-a8-vmm/interrupt.o
                                                  build/kernel/src/object.o
rt_strstr                                         build/kernel/src/kservice.o
rt_system_heap_init                               build/kernel/src/mem.o
                                                  build/bsp/applications/startup.o
rt_system_object_init                             build/kernel/src/object.o
rt_system_scheduler_init                          build/kernel/src/scheduler.o
                                                  build/bsp/applications/startup.o
rt_system_scheduler_start                         build/kernel/src/scheduler.o
                                                  build/bsp/applications/startup.o
rt_system_tick_init                               build/kernel/src/clock.o
rt_system_timer_init                              build/kernel/src/timer.o
                                                  build/bsp/applications/startup.o
rt_system_timer_thread_init                       build/kernel/src/timer.o
                                                  build/bsp/applications/startup.o
rt_thread_control                                 build/kernel/src/thread.o
                                                  build/kernel/src/ipc.o
rt_thread_create                                  build/kernel/src/thread.o
                                                  build/kernel/components/drivers/src/workqueue.o
                                                  build/bsp/applications/application.o
rt_thread_defunct                                 build/kernel/src/scheduler.o
                                                  build/kernel/src/thread.o
                                                  build/kernel/src/idle.o
rt_thread_delay                                   build/kernel/src/thread.o
rt_thread_delete                                  build/kernel/src/thread.o
                                                  build/kernel/components/drivers/src/workqueue.o
rt_thread_detach                                  build/kernel/src/thread.o
                                                  build/kernel/components/pthreads/pthread.o
rt_thread_find                                    build/kernel/src/thread.o
rt_thread_idle_excute                             build/kernel/src/idle.o
rt_thread_idle_init                               build/kernel/src/idle.o
                                                  build/bsp/applications/startup.o
rt_thread_idle_sethook                            build/kernel/src/idle.o
rt_thread_init                                    build/kernel/src/thread.o
                                                  build/kernel/components/pthreads/pthread.o
                                                  build/kernel/components/finsh/shell.o
                                                  build/kernel/src/idle.o
rt_thread_priority_table                          build/kernel/src/scheduler.o
                                                  build/kernel/src/thread.o
rt_thread_ready_priority_group                    build/kernel/src/scheduler.o
rt_thread_resume                                  build/kernel/src/thread.o
                                                  build/kernel/components/drivers/src/workqueue.o
                                                  build/kernel/components/drivers/src/pipe.o
                                                  build/kernel/components/drivers/src/dataqueue.o
                                                  build/kernel/components/drivers/src/completion.o
                                                  build/kernel/src/mempool.o
                                                  build/kernel/src/ipc.o
rt_thread_self                                    build/kernel/src/thread.o
                                                  build/kernel/components/drivers/src/workqueue.o
                                                  build/kernel/components/drivers/src/pipe.o
                                                  build/kernel/components/drivers/src/dataqueue.o
                                                  build/kernel/components/drivers/src/completion.o
                                                  build/kernel/components/libc/newlib/syscalls.o
                                                  build/kernel/components/pthreads/pthread_tls.o
                                                  build/kernel/components/pthreads/pthread_mutex.o
                                                  build/kernel/components/pthreads/pthread_cond.o
                                                  build/kernel/components/pthreads/pthread.o
                                                  build/kernel/src/mempool.o
                                                  build/kernel/src/kservice.o
                                                  build/kernel/src/ipc.o
                                                  build/kernel/src/device.o
                                                  build/kernel/src/clock.o
rt_thread_sleep                                   build/kernel/src/thread.o
rt_thread_startup                                 build/kernel/src/thread.o
                                                  build/kernel/components/drivers/src/workqueue.o
                                                  build/kernel/components/pthreads/pthread.o
                                                  build/kernel/components/finsh/shell.o
                                                  build/kernel/src/idle.o
                                                  build/bsp/applications/application.o
rt_thread_suspend                                 build/kernel/src/thread.o
                                                  build/kernel/components/drivers/src/workqueue.o
                                                  build/kernel/components/drivers/src/pipe.o
                                                  build/kernel/components/drivers/src/dataqueue.o
                                                  build/kernel/components/drivers/src/completion.o
                                                  build/kernel/src/mempool.o
                                                  build/kernel/src/ipc.o
rt_thread_switch_interrupt_flag                   build/kernel/libcpu/arm/realview-a8-vmm/interrupt.o
                                                  build/kernel/libcpu/arm/realview-a8-vmm/start_gcc.o
                                                  build/kernel/libcpu/arm/realview-a8-vmm/context_gcc.o
rt_thread_timeout                                 build/kernel/src/thread.o
rt_thread_yield                                   build/kernel/src/thread.o
                                                  build/kernel/components/pthreads/sched.o
                                                  build/kernel/src/clock.o
rt_tick_from_millisecond                          build/kernel/src/clock.o
rt_tick_get                                       build/kernel/src/clock.o
                                                  build/kernel/components/utilities/logtrace/log_trace.o
                                                  build/kernel/components/pthreads/clock_time.o
                                                  build/kernel/components/finsh/cmd.o
                                                  build/kernel/src/timer.o
                                                  build/kernel/src/mempool.o
                                                  build/kernel/src/ipc.o
rt_tick_increase                                  build/kernel/src/clock.o
                                                  build/bsp/drivers/board.o
rt_tick_set                                       build/kernel/src/clock.o
rt_timer_check                                    build/kernel/src/timer.o
                                                  build/kernel/src/clock.o
rt_timer_control                                  build/kernel/src/timer.o
                                                  build/kernel/components/drivers/src/dataqueue.o
                                                  build/kernel/components/drivers/src/completion.o
                                                  build/kernel/src/thread.o
                                                  build/kernel/src/mempool.o
                                                  build/kernel/src/ipc.o
rt_timer_create                                   build/kernel/src/timer.o
rt_timer_delete                                   build/kernel/src/timer.o
rt_timer_detach                                   build/kernel/src/timer.o
                                                  build/kernel/src/thread.o
rt_timer_init                                     build/kernel/src/timer.o
                                                  build/kernel/src/thread.o
rt_timer_next_timeout_tick                        build/kernel/src/timer.o
rt_timer_start                                    build/kernel/src/timer.o
                                                  build/kernel/components/drivers/src/dataqueue.o
                                                  build/kernel/components/drivers/src/completion.o
                                                  build/kernel/src/thread.o
                                                  build/kernel/src/mempool.o
                                                  build/kernel/src/ipc.o
rt_timer_stop                                     build/kernel/src/timer.o
                                                  build/kernel/src/thread.o
rt_timer_timeout_sethook                          build/kernel/src/timer.o
rt_vsnprintf                                      build/kernel/src/kservice.o
                                                  build/kernel/components/utilities/logtrace/log_trace.o
rt_vsprintf                                       build/kernel/src/kservice.o
rt_workqueue_cancel_work                          build/kernel/components/drivers/src/workqueue.o
rt_workqueue_create                               build/kernel/components/drivers/src/workqueue.o
rt_workqueue_destroy                              build/kernel/components/drivers/src/workqueue.o
rt_workqueue_dowork                               build/kernel/components/drivers/src/workqueue.o
rtthread_startup                                  build/bsp/applications/startup.o
                                                  build/kernel/libcpu/arm/realview-a8-vmm/start_gcc.o
sched_get_priority_max                            build/kernel/components/pthreads/sched.o
sched_get_priority_min                            build/kernel/components/pthreads/sched.o
sched_setscheduler                                build/kernel/components/pthreads/sched.o
sched_yield                                       build/kernel/components/pthreads/sched.o
sem_close                                         build/kernel/components/pthreads/semaphore.o
sem_destroy                                       build/kernel/components/pthreads/semaphore.o
sem_getvalue                                      build/kernel/components/pthreads/semaphore.o
sem_init                                          build/kernel/components/pthreads/semaphore.o
sem_open                                          build/kernel/components/pthreads/semaphore.o
sem_post                                          build/kernel/components/pthreads/semaphore.o
sem_timedwait                                     build/kernel/components/pthreads/semaphore.o
sem_trywait                                       build/kernel/components/pthreads/semaphore.o
sem_unlink                                        build/kernel/components/pthreads/semaphore.o
sem_wait                                          build/kernel/components/pthreads/semaphore.o
setlocale                                         /usr/lib/gcc/arm-none-eabi/4.8.2/../../../arm-none-eabi/lib/armv7-ar/thumb/softfp/libc.a(lib_a-locale.o)
shell                                             build/kernel/components/finsh/shell.o
siscanf                                           /usr/lib/gcc/arm-none-eabi/4.8.2/../../../arm-none-eabi/lib/armv7-ar/thumb/softfp/libc.a(lib_a-siscanf.o)
                                                  /usr/lib/gcc/arm-none-eabi/4.8.2/../../../arm-none-eabi/lib/armv7-ar/thumb/softfp/libc.a(lib_a-tzset_r.o)
software_init_hook                                /usr/lib/gcc/arm-none-eabi/4.8.2/../../../arm-none-eabi/lib/armv7-ar/thumb/softfp/crt0.o
stack_start                                       build/kernel/libcpu/arm/realview-a8-vmm/start_gcc.o
stack_top                                         build/kernel/libcpu/arm/realview-a8-vmm/start_gcc.o
strchr                                            /usr/lib/gcc/arm-none-eabi/4.8.2/../../../arm-none-eabi/lib/armv7-ar/thumb/softfp/libc.a(lib_a-strchr.o)
                                                  /usr/lib/gcc/arm-none-eabi/4.8.2/../../../arm-none-eabi/lib/armv7-ar/thumb/softfp/libc.a(lib_a-setenv_r.o)
                                                  /usr/lib/gcc/arm-none-eabi/4.8.2/../../../arm-none-eabi/lib/armv7-ar/thumb/softfp/libc.a(lib_a-putenv_r.o)
strcmp                                            /usr/lib/gcc/arm-none-eabi/4.8.2/../../../arm-none-eabi/lib/armv7-ar/thumb/softfp/libc.a(lib_a-strcmp.o)
                                                  /usr/lib/gcc/arm-none-eabi/4.8.2/../../../arm-none-eabi/lib/armv7-ar/thumb/softfp/libc.a(lib_a-locale.o)
                                                  /usr/lib/gcc/arm-none-eabi/4.8.2/../../../arm-none-eabi/lib/armv7-ar/thumb/softfp/libc.a(lib_a-tzset_r.o)
                                                  /usr/lib/gcc/arm-none-eabi/4.8.2/../../../arm-none-eabi/lib/armv7-ar/thumb/softfp/libc.a(lib_a-setenv_r.o)
                                                  build/kernel/components/finsh/finsh_token.o
                                                  build/kernel/components/finsh/finsh_vm.o
                                                  build/kernel/components/finsh/finsh_var.o
strcpy                                            /usr/lib/gcc/arm-none-eabi/4.8.2/../../../arm-none-eabi/lib/armv7-ar/thumb/softfp/libc.a(lib_a-strcpy.o)
                                                  /usr/lib/gcc/arm-none-eabi/4.8.2/../../../arm-none-eabi/lib/armv7-ar/thumb/softfp/libc.a(lib_a-tzset_r.o)
strlen                                            /usr/lib/gcc/arm-none-eabi/4.8.2/../../../arm-none-eabi/lib/armv7-ar/thumb/softfp/libc.a(lib_a-strlen.o)
                                                  /usr/lib/gcc/arm-none-eabi/4.8.2/../../../arm-none-eabi/lib/armv7-ar/thumb/softfp/libc.a(lib_a-siscanf.o)
                                                  /usr/lib/gcc/arm-none-eabi/4.8.2/../../../arm-none-eabi/lib/armv7-ar/thumb/softfp/libc.a(lib_a-tzset_r.o)
                                                  /usr/lib/gcc/arm-none-eabi/4.8.2/../../../arm-none-eabi/lib/armv7-ar/thumb/softfp/libc.a(lib_a-strdup_r.o)
                                                  /usr/lib/gcc/arm-none-eabi/4.8.2/../../../arm-none-eabi/lib/armv7-ar/thumb/softfp/libc.a(lib_a-setenv_r.o)
                                                  build/kernel/components/utilities/logtrace/log_trace.o
                                                  build/kernel/components/finsh/finsh_token.o
                                                  build/kernel/components/finsh/finsh_vm.o
                                                  build/kernel/components/finsh/finsh_var.o
                                                  build/kernel/components/finsh/finsh_node.o
                                                  build/kernel/components/finsh/msh.o
                                                  build/kernel/components/finsh/cmd.o
                                                  build/kernel/components/finsh/shell.o
strncmp                                           /usr/lib/gcc/arm-none-eabi/4.8.2/../../../arm-none-eabi/lib/armv7-ar/thumb/softfp/libc.a(lib_a-strncmp.o)
                                                  /usr/lib/gcc/arm-none-eabi/4.8.2/../../../arm-none-eabi/lib/armv7-ar/thumb/softfp/libc.a(lib_a-getenv_r.o)
                                                  /usr/lib/gcc/arm-none-eabi/4.8.2/../../../arm-none-eabi/lib/armv7-ar/thumb/softfp/libc.a(lib_a-setenv_r.o)
                                                  build/kernel/components/pthreads/semaphore.o
                                                  build/kernel/components/pthreads/mqueue.o
                                                  build/kernel/components/finsh/finsh_vm.o
                                                  build/kernel/components/finsh/finsh_var.o
                                                  build/kernel/components/finsh/msh.o
                                                  build/kernel/components/finsh/cmd.o
strncpy                                           /usr/lib/gcc/arm-none-eabi/4.8.2/../../../arm-none-eabi/lib/armv7-ar/thumb/softfp/libc.a(lib_a-strncpy.o)
                                                  build/kernel/components/finsh/finsh_token.o
                                                  build/kernel/components/finsh/finsh_var.o
                                                  build/kernel/components/finsh/finsh_parser.o
                                                  build/kernel/components/finsh/finsh_node.o
strtol                                            /usr/lib/gcc/arm-none-eabi/4.8.2/../../../arm-none-eabi/lib/armv7-ar/thumb/softfp/libc.a(lib_a-strtol.o)
                                                  /usr/lib/gcc/arm-none-eabi/4.8.2/../../../arm-none-eabi/lib/armv7-ar/thumb/softfp/libc.a(lib_a-atoi.o)
strtoul                                           /usr/lib/gcc/arm-none-eabi/4.8.2/../../../arm-none-eabi/lib/armv7-ar/thumb/softfp/libc.a(lib_a-strtoul.o)
                                                  /usr/lib/gcc/arm-none-eabi/4.8.2/../../../arm-none-eabi/lib/armv7-ar/thumb/softfp/libc.a(lib_a-tzset_r.o)
system_vectors                                    build/kernel/libcpu/arm/realview-a8-vmm/vector_gcc.o
                                                  build/kernel/libcpu/arm/realview-a8-vmm/interrupt.o
text_segment                                      build/kernel/components/finsh/finsh_vm.o
                                                  build/kernel/components/finsh/finsh_compiler.o
token_get_string                                  build/kernel/components/finsh/finsh_token.o
tzset                                             /usr/lib/gcc/arm-none-eabi/4.8.2/../../../arm-none-eabi/lib/armv7-ar/thumb/softfp/libc.a(lib_a-tzset.o)
                                                  /usr/lib/gcc/arm-none-eabi/4.8.2/../../../arm-none-eabi/lib/armv7-ar/thumb/softfp/libc.a(lib_a-setenv_r.o)
uart_isr_test                                     build/bsp/drivers/serial.o
ungetc                                            /usr/lib/gcc/arm-none-eabi/4.8.2/../../../arm-none-eabi/lib/armv7-ar/thumb/softfp/libc.a(lib_a-ungetc.o)
vector_dabt                                       build/kernel/libcpu/arm/realview-a8-vmm/start_gcc.o
                                                  build/kernel/libcpu/arm/realview-a8-vmm/vector_gcc.o
vector_fiq                                        build/kernel/libcpu/arm/realview-a8-vmm/start_gcc.o
                                                  build/kernel/libcpu/arm/realview-a8-vmm/vector_gcc.o
vector_irq                                        build/kernel/libcpu/arm/realview-a8-vmm/start_gcc.o
                                                  build/kernel/libcpu/arm/realview-a8-vmm/vector_gcc.o
vector_pabt                                       build/kernel/libcpu/arm/realview-a8-vmm/start_gcc.o
                                                  build/kernel/libcpu/arm/realview-a8-vmm/vector_gcc.o
vector_resv                                       build/kernel/libcpu/arm/realview-a8-vmm/start_gcc.o
                                                  build/kernel/libcpu/arm/realview-a8-vmm/vector_gcc.o
vector_swi                                        build/kernel/libcpu/arm/realview-a8-vmm/start_gcc.o
                                                  build/kernel/libcpu/arm/realview-a8-vmm/vector_gcc.o
vector_undef                                      build/kernel/libcpu/arm/realview-a8-vmm/start_gcc.o
                                                  build/kernel/libcpu/arm/realview-a8-vmm/vector_gcc.o
version                                           build/kernel/components/finsh/cmd.o
vmm_thread                                        build/kernel/libcpu/arm/realview-a8-vmm/start_gcc.o
vmm_virq_check                                    build/kernel/libcpu/arm/realview-a8-vmm/start_gcc.o
vmm_virq_update                                   build/kernel/libcpu/arm/realview-a8-vmm/context_gcc.o
